
Amit project- Electric Water Heater.elf:     file format elf32-avr

Sections:
Idx Name          Size      VMA       LMA       File off  Algn
  0 .text         00000e18  00000000  00000000  00000094  2**1
                  CONTENTS, ALLOC, LOAD, READONLY, CODE
  1 .data         00000002  00800060  00000e18  00000eac  2**0
                  CONTENTS, ALLOC, LOAD, DATA
  2 .bss          00000027  00800062  00800062  00000eae  2**0
                  ALLOC
  3 .comment      00000030  00000000  00000000  00000eae  2**0
                  CONTENTS, READONLY
  4 .note.gnu.avr.deviceinfo 0000003c  00000000  00000000  00000ee0  2**2
                  CONTENTS, READONLY
  5 .debug_aranges 00000338  00000000  00000000  00000f1c  2**0
                  CONTENTS, READONLY, DEBUGGING
  6 .debug_info   00002604  00000000  00000000  00001254  2**0
                  CONTENTS, READONLY, DEBUGGING
  7 .debug_abbrev 00000e12  00000000  00000000  00003858  2**0
                  CONTENTS, READONLY, DEBUGGING
  8 .debug_line   00001728  00000000  00000000  0000466a  2**0
                  CONTENTS, READONLY, DEBUGGING
  9 .debug_frame  00000610  00000000  00000000  00005d94  2**2
                  CONTENTS, READONLY, DEBUGGING
 10 .debug_str    00000dfd  00000000  00000000  000063a4  2**0
                  CONTENTS, READONLY, DEBUGGING
 11 .debug_loc    00000ce5  00000000  00000000  000071a1  2**0
                  CONTENTS, READONLY, DEBUGGING
 12 .debug_ranges 00000258  00000000  00000000  00007e86  2**0
                  CONTENTS, READONLY, DEBUGGING

Disassembly of section .text:

00000000 <__vectors>:
   0:	0c 94 34 00 	jmp	0x68	; 0x68 <__ctors_end>
   4:	0c 94 51 00 	jmp	0xa2	; 0xa2 <__bad_interrupt>
   8:	0c 94 51 00 	jmp	0xa2	; 0xa2 <__bad_interrupt>
   c:	0c 94 51 00 	jmp	0xa2	; 0xa2 <__bad_interrupt>
  10:	0c 94 51 00 	jmp	0xa2	; 0xa2 <__bad_interrupt>
  14:	0c 94 86 02 	jmp	0x50c	; 0x50c <__vector_5>
  18:	0c 94 51 00 	jmp	0xa2	; 0xa2 <__bad_interrupt>
  1c:	0c 94 51 00 	jmp	0xa2	; 0xa2 <__bad_interrupt>
  20:	0c 94 51 00 	jmp	0xa2	; 0xa2 <__bad_interrupt>
  24:	0c 94 35 02 	jmp	0x46a	; 0x46a <__vector_9>
  28:	0c 94 51 00 	jmp	0xa2	; 0xa2 <__bad_interrupt>
  2c:	0c 94 d7 01 	jmp	0x3ae	; 0x3ae <__vector_11>
  30:	0c 94 51 00 	jmp	0xa2	; 0xa2 <__bad_interrupt>
  34:	0c 94 51 00 	jmp	0xa2	; 0xa2 <__bad_interrupt>
  38:	0c 94 c2 02 	jmp	0x584	; 0x584 <__vector_14>
  3c:	0c 94 51 00 	jmp	0xa2	; 0xa2 <__bad_interrupt>
  40:	0c 94 51 00 	jmp	0xa2	; 0xa2 <__bad_interrupt>
  44:	0c 94 51 00 	jmp	0xa2	; 0xa2 <__bad_interrupt>
  48:	0c 94 51 00 	jmp	0xa2	; 0xa2 <__bad_interrupt>
  4c:	0c 94 51 00 	jmp	0xa2	; 0xa2 <__bad_interrupt>
  50:	0c 94 51 00 	jmp	0xa2	; 0xa2 <__bad_interrupt>
  54:	32 04       	cpc	r3, r2
  56:	47 04       	cpc	r4, r7
  58:	5c 04       	cpc	r5, r12
  5a:	71 04       	cpc	r7, r1
  5c:	86 04       	cpc	r8, r6
  5e:	9b 04       	cpc	r9, r11
  60:	b0 04       	cpc	r11, r0
  62:	c5 04       	cpc	r12, r5
  64:	da 04       	cpc	r13, r10
  66:	ef 04       	cpc	r14, r15

00000068 <__ctors_end>:
  68:	11 24       	eor	r1, r1
  6a:	1f be       	out	0x3f, r1	; 63
  6c:	cf e5       	ldi	r28, 0x5F	; 95
  6e:	d8 e0       	ldi	r29, 0x08	; 8
  70:	de bf       	out	0x3e, r29	; 62
  72:	cd bf       	out	0x3d, r28	; 61

00000074 <__do_copy_data>:
  74:	10 e0       	ldi	r17, 0x00	; 0
  76:	a0 e6       	ldi	r26, 0x60	; 96
  78:	b0 e0       	ldi	r27, 0x00	; 0
  7a:	e8 e1       	ldi	r30, 0x18	; 24
  7c:	fe e0       	ldi	r31, 0x0E	; 14
  7e:	02 c0       	rjmp	.+4      	; 0x84 <__do_copy_data+0x10>
  80:	05 90       	lpm	r0, Z+
  82:	0d 92       	st	X+, r0
  84:	a2 36       	cpi	r26, 0x62	; 98
  86:	b1 07       	cpc	r27, r17
  88:	d9 f7       	brne	.-10     	; 0x80 <__do_copy_data+0xc>

0000008a <__do_clear_bss>:
  8a:	20 e0       	ldi	r18, 0x00	; 0
  8c:	a2 e6       	ldi	r26, 0x62	; 98
  8e:	b0 e0       	ldi	r27, 0x00	; 0
  90:	01 c0       	rjmp	.+2      	; 0x94 <.do_clear_bss_start>

00000092 <.do_clear_bss_loop>:
  92:	1d 92       	st	X+, r1

00000094 <.do_clear_bss_start>:
  94:	a9 38       	cpi	r26, 0x89	; 137
  96:	b2 07       	cpc	r27, r18
  98:	e1 f7       	brne	.-8      	; 0x92 <.do_clear_bss_loop>
  9a:	0e 94 b5 05 	call	0xb6a	; 0xb6a <main>
  9e:	0c 94 0a 07 	jmp	0xe14	; 0xe14 <_exit>

000000a2 <__bad_interrupt>:
  a2:	0c 94 00 00 	jmp	0	; 0x0 <__vectors>

000000a6 <DIO_udtSetPinDirection>:
uint8 u8Pin,
uint8 u8Direction
)
{
	Std_ReturnType udtReturnValue = E_NOT_OK ;
	if(u8Direction == DIO_OUTPUT)
  a6:	41 30       	cpi	r20, 0x01	; 1
  a8:	c1 f5       	brne	.+112    	; 0x11a <DIO_udtSetPinDirection+0x74>
	{
		switch(u8Port)
  aa:	81 30       	cpi	r24, 0x01	; 1
  ac:	91 f0       	breq	.+36     	; 0xd2 <DIO_udtSetPinDirection+0x2c>
  ae:	28 f0       	brcs	.+10     	; 0xba <DIO_udtSetPinDirection+0x14>
  b0:	82 30       	cpi	r24, 0x02	; 2
  b2:	d9 f0       	breq	.+54     	; 0xea <DIO_udtSetPinDirection+0x44>
  b4:	83 30       	cpi	r24, 0x03	; 3
  b6:	29 f1       	breq	.+74     	; 0x102 <DIO_udtSetPinDirection+0x5c>
  b8:	6e c0       	rjmp	.+220    	; 0x196 <DIO_udtSetPinDirection+0xf0>
		{
			case DIO_PORTA: SET_BIT(DIO ->DDRA, u8Pin) ;
  ba:	81 e0       	ldi	r24, 0x01	; 1
  bc:	90 e0       	ldi	r25, 0x00	; 0
  be:	02 c0       	rjmp	.+4      	; 0xc4 <DIO_udtSetPinDirection+0x1e>
  c0:	88 0f       	add	r24, r24
  c2:	99 1f       	adc	r25, r25
  c4:	6a 95       	dec	r22
  c6:	e2 f7       	brpl	.-8      	; 0xc0 <DIO_udtSetPinDirection+0x1a>
  c8:	9a b3       	in	r25, 0x1a	; 26
  ca:	89 2b       	or	r24, r25
  cc:	8a bb       	out	0x1a, r24	; 26
							udtReturnValue = E_OK;
  ce:	80 e0       	ldi	r24, 0x00	; 0
							break;
  d0:	08 95       	ret
							
			case DIO_PORTB: SET_BIT(DIO ->DDRB, u8Pin) ;
  d2:	81 e0       	ldi	r24, 0x01	; 1
  d4:	90 e0       	ldi	r25, 0x00	; 0
  d6:	02 c0       	rjmp	.+4      	; 0xdc <DIO_udtSetPinDirection+0x36>
  d8:	88 0f       	add	r24, r24
  da:	99 1f       	adc	r25, r25
  dc:	6a 95       	dec	r22
  de:	e2 f7       	brpl	.-8      	; 0xd8 <DIO_udtSetPinDirection+0x32>
  e0:	97 b3       	in	r25, 0x17	; 23
  e2:	89 2b       	or	r24, r25
  e4:	87 bb       	out	0x17, r24	; 23
							udtReturnValue = E_OK;
  e6:	80 e0       	ldi	r24, 0x00	; 0
							break;
  e8:	08 95       	ret
							
			case DIO_PORTC:	SET_BIT(DIO ->DDRC, u8Pin) ;
  ea:	81 e0       	ldi	r24, 0x01	; 1
  ec:	90 e0       	ldi	r25, 0x00	; 0
  ee:	02 c0       	rjmp	.+4      	; 0xf4 <DIO_udtSetPinDirection+0x4e>
  f0:	88 0f       	add	r24, r24
  f2:	99 1f       	adc	r25, r25
  f4:	6a 95       	dec	r22
  f6:	e2 f7       	brpl	.-8      	; 0xf0 <DIO_udtSetPinDirection+0x4a>
  f8:	94 b3       	in	r25, 0x14	; 20
  fa:	89 2b       	or	r24, r25
  fc:	84 bb       	out	0x14, r24	; 20
							udtReturnValue = E_OK;
  fe:	80 e0       	ldi	r24, 0x00	; 0
							break;
 100:	08 95       	ret
							
			case DIO_PORTD:	SET_BIT(DIO ->DDRD, u8Pin) ;
 102:	81 e0       	ldi	r24, 0x01	; 1
 104:	90 e0       	ldi	r25, 0x00	; 0
 106:	02 c0       	rjmp	.+4      	; 0x10c <DIO_udtSetPinDirection+0x66>
 108:	88 0f       	add	r24, r24
 10a:	99 1f       	adc	r25, r25
 10c:	6a 95       	dec	r22
 10e:	e2 f7       	brpl	.-8      	; 0x108 <DIO_udtSetPinDirection+0x62>
 110:	91 b3       	in	r25, 0x11	; 17
 112:	89 2b       	or	r24, r25
 114:	81 bb       	out	0x11, r24	; 17
							udtReturnValue = E_OK;
 116:	80 e0       	ldi	r24, 0x00	; 0
							break;
 118:	08 95       	ret
							
			default: /*Comment: Do notion */ // misra rule leave empty if not used
							break;			//  misra rule add break for default
		}
	}
	else if(u8Direction == DIO_INPUT)
 11a:	41 11       	cpse	r20, r1
 11c:	3e c0       	rjmp	.+124    	; 0x19a <DIO_udtSetPinDirection+0xf4>
	{
		switch(u8Port)
 11e:	81 30       	cpi	r24, 0x01	; 1
 120:	99 f0       	breq	.+38     	; 0x148 <DIO_udtSetPinDirection+0xa2>
 122:	28 f0       	brcs	.+10     	; 0x12e <DIO_udtSetPinDirection+0x88>
 124:	82 30       	cpi	r24, 0x02	; 2
 126:	e9 f0       	breq	.+58     	; 0x162 <DIO_udtSetPinDirection+0xbc>
 128:	83 30       	cpi	r24, 0x03	; 3
 12a:	41 f1       	breq	.+80     	; 0x17c <DIO_udtSetPinDirection+0xd6>
 12c:	38 c0       	rjmp	.+112    	; 0x19e <DIO_udtSetPinDirection+0xf8>
		{
			case DIO_PORTA: CLR_BIT(DIO ->DDRA, u8Pin) ;
 12e:	81 e0       	ldi	r24, 0x01	; 1
 130:	90 e0       	ldi	r25, 0x00	; 0
 132:	02 c0       	rjmp	.+4      	; 0x138 <DIO_udtSetPinDirection+0x92>
 134:	88 0f       	add	r24, r24
 136:	99 1f       	adc	r25, r25
 138:	6a 95       	dec	r22
 13a:	e2 f7       	brpl	.-8      	; 0x134 <DIO_udtSetPinDirection+0x8e>
 13c:	80 95       	com	r24
 13e:	9a b3       	in	r25, 0x1a	; 26
 140:	89 23       	and	r24, r25
 142:	8a bb       	out	0x1a, r24	; 26
							udtReturnValue = E_OK;
 144:	80 e0       	ldi	r24, 0x00	; 0
							break;
 146:	08 95       	ret
							
			case DIO_PORTB: CLR_BIT(DIO ->DDRB, u8Pin) ;
 148:	81 e0       	ldi	r24, 0x01	; 1
 14a:	90 e0       	ldi	r25, 0x00	; 0
 14c:	02 c0       	rjmp	.+4      	; 0x152 <DIO_udtSetPinDirection+0xac>
 14e:	88 0f       	add	r24, r24
 150:	99 1f       	adc	r25, r25
 152:	6a 95       	dec	r22
 154:	e2 f7       	brpl	.-8      	; 0x14e <DIO_udtSetPinDirection+0xa8>
 156:	80 95       	com	r24
 158:	97 b3       	in	r25, 0x17	; 23
 15a:	89 23       	and	r24, r25
 15c:	87 bb       	out	0x17, r24	; 23
							udtReturnValue = E_OK;
 15e:	80 e0       	ldi	r24, 0x00	; 0
							break;
 160:	08 95       	ret
							
			case DIO_PORTC:	CLR_BIT(DIO ->DDRC, u8Pin) ;
 162:	81 e0       	ldi	r24, 0x01	; 1
 164:	90 e0       	ldi	r25, 0x00	; 0
 166:	02 c0       	rjmp	.+4      	; 0x16c <DIO_udtSetPinDirection+0xc6>
 168:	88 0f       	add	r24, r24
 16a:	99 1f       	adc	r25, r25
 16c:	6a 95       	dec	r22
 16e:	e2 f7       	brpl	.-8      	; 0x168 <DIO_udtSetPinDirection+0xc2>
 170:	80 95       	com	r24
 172:	94 b3       	in	r25, 0x14	; 20
 174:	89 23       	and	r24, r25
 176:	84 bb       	out	0x14, r24	; 20
							udtReturnValue = E_OK;
 178:	80 e0       	ldi	r24, 0x00	; 0
							break;
 17a:	08 95       	ret
							
			case DIO_PORTD:	CLR_BIT(DIO ->DDRD, u8Pin) ;
 17c:	81 e0       	ldi	r24, 0x01	; 1
 17e:	90 e0       	ldi	r25, 0x00	; 0
 180:	02 c0       	rjmp	.+4      	; 0x186 <DIO_udtSetPinDirection+0xe0>
 182:	88 0f       	add	r24, r24
 184:	99 1f       	adc	r25, r25
 186:	6a 95       	dec	r22
 188:	e2 f7       	brpl	.-8      	; 0x182 <DIO_udtSetPinDirection+0xdc>
 18a:	80 95       	com	r24
 18c:	91 b3       	in	r25, 0x11	; 17
 18e:	89 23       	and	r24, r25
 190:	81 bb       	out	0x11, r24	; 17
							udtReturnValue = E_OK;
 192:	80 e0       	ldi	r24, 0x00	; 0
							break;
 194:	08 95       	ret
uint8 u8Port,
uint8 u8Pin,
uint8 u8Direction
)
{
	Std_ReturnType udtReturnValue = E_NOT_OK ;
 196:	81 e0       	ldi	r24, 0x01	; 1
 198:	08 95       	ret
 19a:	81 e0       	ldi	r24, 0x01	; 1
 19c:	08 95       	ret
 19e:	81 e0       	ldi	r24, 0x01	; 1
							break;			//  misra rule add break for default
		}
	}
	else{} // misra rule leave empty if not used
	return udtReturnValue;
}
 1a0:	08 95       	ret

000001a2 <DIO_udtSetPinValue>:
uint8 u8Pin,
uint8 u8Value
)
{
	Std_ReturnType udtReturnValue = E_NOT_OK ;
	if(u8Value == DIO_HIGH)
 1a2:	41 30       	cpi	r20, 0x01	; 1
 1a4:	c1 f5       	brne	.+112    	; 0x216 <DIO_udtSetPinValue+0x74>
	{
		switch(u8Port)
 1a6:	81 30       	cpi	r24, 0x01	; 1
 1a8:	91 f0       	breq	.+36     	; 0x1ce <DIO_udtSetPinValue+0x2c>
 1aa:	28 f0       	brcs	.+10     	; 0x1b6 <DIO_udtSetPinValue+0x14>
 1ac:	82 30       	cpi	r24, 0x02	; 2
 1ae:	d9 f0       	breq	.+54     	; 0x1e6 <DIO_udtSetPinValue+0x44>
 1b0:	83 30       	cpi	r24, 0x03	; 3
 1b2:	29 f1       	breq	.+74     	; 0x1fe <DIO_udtSetPinValue+0x5c>
 1b4:	6e c0       	rjmp	.+220    	; 0x292 <DIO_udtSetPinValue+0xf0>
		{
			case DIO_PORTA: SET_BIT(DIO ->PORTA, u8Pin) ;
 1b6:	81 e0       	ldi	r24, 0x01	; 1
 1b8:	90 e0       	ldi	r25, 0x00	; 0
 1ba:	02 c0       	rjmp	.+4      	; 0x1c0 <DIO_udtSetPinValue+0x1e>
 1bc:	88 0f       	add	r24, r24
 1be:	99 1f       	adc	r25, r25
 1c0:	6a 95       	dec	r22
 1c2:	e2 f7       	brpl	.-8      	; 0x1bc <DIO_udtSetPinValue+0x1a>
 1c4:	9b b3       	in	r25, 0x1b	; 27
 1c6:	89 2b       	or	r24, r25
 1c8:	8b bb       	out	0x1b, r24	; 27
			udtReturnValue = E_OK;
 1ca:	80 e0       	ldi	r24, 0x00	; 0
			break;
 1cc:	08 95       	ret
			
			case DIO_PORTB: SET_BIT(DIO ->PORTB, u8Pin) ;
 1ce:	81 e0       	ldi	r24, 0x01	; 1
 1d0:	90 e0       	ldi	r25, 0x00	; 0
 1d2:	02 c0       	rjmp	.+4      	; 0x1d8 <DIO_udtSetPinValue+0x36>
 1d4:	88 0f       	add	r24, r24
 1d6:	99 1f       	adc	r25, r25
 1d8:	6a 95       	dec	r22
 1da:	e2 f7       	brpl	.-8      	; 0x1d4 <DIO_udtSetPinValue+0x32>
 1dc:	98 b3       	in	r25, 0x18	; 24
 1de:	89 2b       	or	r24, r25
 1e0:	88 bb       	out	0x18, r24	; 24
			udtReturnValue = E_OK;
 1e2:	80 e0       	ldi	r24, 0x00	; 0
			break;
 1e4:	08 95       	ret
			
			case DIO_PORTC:	SET_BIT(DIO ->PORTC, u8Pin) ;
 1e6:	81 e0       	ldi	r24, 0x01	; 1
 1e8:	90 e0       	ldi	r25, 0x00	; 0
 1ea:	02 c0       	rjmp	.+4      	; 0x1f0 <DIO_udtSetPinValue+0x4e>
 1ec:	88 0f       	add	r24, r24
 1ee:	99 1f       	adc	r25, r25
 1f0:	6a 95       	dec	r22
 1f2:	e2 f7       	brpl	.-8      	; 0x1ec <DIO_udtSetPinValue+0x4a>
 1f4:	95 b3       	in	r25, 0x15	; 21
 1f6:	89 2b       	or	r24, r25
 1f8:	85 bb       	out	0x15, r24	; 21
			udtReturnValue = E_OK;
 1fa:	80 e0       	ldi	r24, 0x00	; 0
			break;
 1fc:	08 95       	ret
			
			case DIO_PORTD:	SET_BIT(DIO ->PORTD, u8Pin) ;
 1fe:	81 e0       	ldi	r24, 0x01	; 1
 200:	90 e0       	ldi	r25, 0x00	; 0
 202:	02 c0       	rjmp	.+4      	; 0x208 <DIO_udtSetPinValue+0x66>
 204:	88 0f       	add	r24, r24
 206:	99 1f       	adc	r25, r25
 208:	6a 95       	dec	r22
 20a:	e2 f7       	brpl	.-8      	; 0x204 <DIO_udtSetPinValue+0x62>
 20c:	92 b3       	in	r25, 0x12	; 18
 20e:	89 2b       	or	r24, r25
 210:	82 bb       	out	0x12, r24	; 18
			udtReturnValue = E_OK;
 212:	80 e0       	ldi	r24, 0x00	; 0
			break;
 214:	08 95       	ret
			
			default: /*Comment: Do notion */ // misra rule leave empty if not used
			break;							//  misra rule add break for default
		}
	}
	else if(u8Value == DIO_LOW)
 216:	41 11       	cpse	r20, r1
 218:	3e c0       	rjmp	.+124    	; 0x296 <DIO_udtSetPinValue+0xf4>
	{
		switch(u8Port)
 21a:	81 30       	cpi	r24, 0x01	; 1
 21c:	99 f0       	breq	.+38     	; 0x244 <DIO_udtSetPinValue+0xa2>
 21e:	28 f0       	brcs	.+10     	; 0x22a <DIO_udtSetPinValue+0x88>
 220:	82 30       	cpi	r24, 0x02	; 2
 222:	e9 f0       	breq	.+58     	; 0x25e <DIO_udtSetPinValue+0xbc>
 224:	83 30       	cpi	r24, 0x03	; 3
 226:	41 f1       	breq	.+80     	; 0x278 <DIO_udtSetPinValue+0xd6>
 228:	38 c0       	rjmp	.+112    	; 0x29a <DIO_udtSetPinValue+0xf8>
		{
			case DIO_PORTA: CLR_BIT(DIO ->PORTA, u8Pin) ;
 22a:	81 e0       	ldi	r24, 0x01	; 1
 22c:	90 e0       	ldi	r25, 0x00	; 0
 22e:	02 c0       	rjmp	.+4      	; 0x234 <DIO_udtSetPinValue+0x92>
 230:	88 0f       	add	r24, r24
 232:	99 1f       	adc	r25, r25
 234:	6a 95       	dec	r22
 236:	e2 f7       	brpl	.-8      	; 0x230 <DIO_udtSetPinValue+0x8e>
 238:	80 95       	com	r24
 23a:	9b b3       	in	r25, 0x1b	; 27
 23c:	89 23       	and	r24, r25
 23e:	8b bb       	out	0x1b, r24	; 27
							udtReturnValue = E_OK;
 240:	80 e0       	ldi	r24, 0x00	; 0
							break;
 242:	08 95       	ret
			
			case DIO_PORTB: CLR_BIT(DIO ->PORTB, u8Pin) ;
 244:	81 e0       	ldi	r24, 0x01	; 1
 246:	90 e0       	ldi	r25, 0x00	; 0
 248:	02 c0       	rjmp	.+4      	; 0x24e <DIO_udtSetPinValue+0xac>
 24a:	88 0f       	add	r24, r24
 24c:	99 1f       	adc	r25, r25
 24e:	6a 95       	dec	r22
 250:	e2 f7       	brpl	.-8      	; 0x24a <DIO_udtSetPinValue+0xa8>
 252:	80 95       	com	r24
 254:	98 b3       	in	r25, 0x18	; 24
 256:	89 23       	and	r24, r25
 258:	88 bb       	out	0x18, r24	; 24
							udtReturnValue = E_OK;
 25a:	80 e0       	ldi	r24, 0x00	; 0
							break;
 25c:	08 95       	ret
			
			case DIO_PORTC:	CLR_BIT(DIO ->PORTC, u8Pin) ;
 25e:	81 e0       	ldi	r24, 0x01	; 1
 260:	90 e0       	ldi	r25, 0x00	; 0
 262:	02 c0       	rjmp	.+4      	; 0x268 <DIO_udtSetPinValue+0xc6>
 264:	88 0f       	add	r24, r24
 266:	99 1f       	adc	r25, r25
 268:	6a 95       	dec	r22
 26a:	e2 f7       	brpl	.-8      	; 0x264 <DIO_udtSetPinValue+0xc2>
 26c:	80 95       	com	r24
 26e:	95 b3       	in	r25, 0x15	; 21
 270:	89 23       	and	r24, r25
 272:	85 bb       	out	0x15, r24	; 21
							udtReturnValue = E_OK;
 274:	80 e0       	ldi	r24, 0x00	; 0
							break;
 276:	08 95       	ret
			
			case DIO_PORTD:	CLR_BIT(DIO ->PORTD, u8Pin) ;
 278:	81 e0       	ldi	r24, 0x01	; 1
 27a:	90 e0       	ldi	r25, 0x00	; 0
 27c:	02 c0       	rjmp	.+4      	; 0x282 <DIO_udtSetPinValue+0xe0>
 27e:	88 0f       	add	r24, r24
 280:	99 1f       	adc	r25, r25
 282:	6a 95       	dec	r22
 284:	e2 f7       	brpl	.-8      	; 0x27e <DIO_udtSetPinValue+0xdc>
 286:	80 95       	com	r24
 288:	92 b3       	in	r25, 0x12	; 18
 28a:	89 23       	and	r24, r25
 28c:	82 bb       	out	0x12, r24	; 18
							udtReturnValue = E_OK;
 28e:	80 e0       	ldi	r24, 0x00	; 0
							break;
 290:	08 95       	ret
uint8 u8Port,
uint8 u8Pin,
uint8 u8Value
)
{
	Std_ReturnType udtReturnValue = E_NOT_OK ;
 292:	81 e0       	ldi	r24, 0x01	; 1
 294:	08 95       	ret
 296:	81 e0       	ldi	r24, 0x01	; 1
 298:	08 95       	ret
 29a:	81 e0       	ldi	r24, 0x01	; 1
			break;							//  misra rule add break for default
		}
	}
	else{} // misra rule add else and leave empty if not used
	return udtReturnValue;
}
 29c:	08 95       	ret

0000029e <DIO_udtGetPinValue>:
uint8* pu8Value /// pointer to send value
)
{
	Std_ReturnType udtReturnValue = E_NOT_OK ;
	
	switch(u8Port)
 29e:	81 30       	cpi	r24, 0x01	; 1
 2a0:	91 f0       	breq	.+36     	; 0x2c6 <DIO_udtGetPinValue+0x28>
 2a2:	28 f0       	brcs	.+10     	; 0x2ae <DIO_udtGetPinValue+0x10>
 2a4:	82 30       	cpi	r24, 0x02	; 2
 2a6:	d9 f0       	breq	.+54     	; 0x2de <DIO_udtGetPinValue+0x40>
 2a8:	83 30       	cpi	r24, 0x03	; 3
 2aa:	29 f1       	breq	.+74     	; 0x2f6 <DIO_udtGetPinValue+0x58>
 2ac:	30 c0       	rjmp	.+96     	; 0x30e <DIO_udtGetPinValue+0x70>
	{
		case DIO_PORTA: *pu8Value = GET_BIT(DIO->PINA, u8Pin);
 2ae:	89 b3       	in	r24, 0x19	; 25
 2b0:	90 e0       	ldi	r25, 0x00	; 0
 2b2:	02 c0       	rjmp	.+4      	; 0x2b8 <DIO_udtGetPinValue+0x1a>
 2b4:	95 95       	asr	r25
 2b6:	87 95       	ror	r24
 2b8:	6a 95       	dec	r22
 2ba:	e2 f7       	brpl	.-8      	; 0x2b4 <DIO_udtGetPinValue+0x16>
 2bc:	81 70       	andi	r24, 0x01	; 1
 2be:	fa 01       	movw	r30, r20
 2c0:	80 83       	st	Z, r24
						udtReturnValue = E_OK;
 2c2:	80 e0       	ldi	r24, 0x00	; 0
						break;
 2c4:	08 95       	ret
		case DIO_PORTB: *pu8Value = GET_BIT(DIO->PINB, u8Pin);
 2c6:	86 b3       	in	r24, 0x16	; 22
 2c8:	90 e0       	ldi	r25, 0x00	; 0
 2ca:	02 c0       	rjmp	.+4      	; 0x2d0 <DIO_udtGetPinValue+0x32>
 2cc:	95 95       	asr	r25
 2ce:	87 95       	ror	r24
 2d0:	6a 95       	dec	r22
 2d2:	e2 f7       	brpl	.-8      	; 0x2cc <DIO_udtGetPinValue+0x2e>
 2d4:	81 70       	andi	r24, 0x01	; 1
 2d6:	fa 01       	movw	r30, r20
 2d8:	80 83       	st	Z, r24
						udtReturnValue = E_OK;
 2da:	80 e0       	ldi	r24, 0x00	; 0
						break;
 2dc:	08 95       	ret
		case DIO_PORTC: *pu8Value = GET_BIT(DIO->PINC, u8Pin);
 2de:	83 b3       	in	r24, 0x13	; 19
 2e0:	90 e0       	ldi	r25, 0x00	; 0
 2e2:	02 c0       	rjmp	.+4      	; 0x2e8 <DIO_udtGetPinValue+0x4a>
 2e4:	95 95       	asr	r25
 2e6:	87 95       	ror	r24
 2e8:	6a 95       	dec	r22
 2ea:	e2 f7       	brpl	.-8      	; 0x2e4 <DIO_udtGetPinValue+0x46>
 2ec:	81 70       	andi	r24, 0x01	; 1
 2ee:	fa 01       	movw	r30, r20
 2f0:	80 83       	st	Z, r24
						udtReturnValue = E_OK;
 2f2:	80 e0       	ldi	r24, 0x00	; 0
						break;
 2f4:	08 95       	ret
		case DIO_PORTD: *pu8Value = GET_BIT(DIO->PIND, u8Pin);
 2f6:	80 b3       	in	r24, 0x10	; 16
 2f8:	90 e0       	ldi	r25, 0x00	; 0
 2fa:	02 c0       	rjmp	.+4      	; 0x300 <DIO_udtGetPinValue+0x62>
 2fc:	95 95       	asr	r25
 2fe:	87 95       	ror	r24
 300:	6a 95       	dec	r22
 302:	e2 f7       	brpl	.-8      	; 0x2fc <DIO_udtGetPinValue+0x5e>
 304:	81 70       	andi	r24, 0x01	; 1
 306:	fa 01       	movw	r30, r20
 308:	80 83       	st	Z, r24
						udtReturnValue = E_OK;
 30a:	80 e0       	ldi	r24, 0x00	; 0
						break;
 30c:	08 95       	ret
uint8  u8Port,
uint8  u8Pin,
uint8* pu8Value /// pointer to send value
)
{
	Std_ReturnType udtReturnValue = E_NOT_OK ;
 30e:	81 e0       	ldi	r24, 0x01	; 1
						break;
		default: /*Comment: Do nothing */	// misra rule add default and leave empty if not used    //// misra rule to write comment 
						break;				//  misra rule add break for default
	}
	return udtReturnValue;
 310:	08 95       	ret

00000312 <MCAL_GIE_vidEnable>:
#include "GIE_private.h"


void MCAL_GIE_vidEnable (void)
{
	SET_BIT(SREG, I_BIT) ;
 312:	8f b7       	in	r24, 0x3f	; 63
 314:	80 68       	ori	r24, 0x80	; 128
 316:	8f bf       	out	0x3f, r24	; 63
 318:	08 95       	ret

0000031a <MCAL_ADC_vidInit>:
	CLR_BIT(ADMUX, 7) ;
	#elif Voltage_Reference_Selection == Reserved
	CLR_BIT(ADMUX, 6) ;
	SET_BIT(ADMUX, 7) ;
	#elif Voltage_Reference_Selection == Internal_Voltage_Reference
	SET_BIT(ADMUX, 6) ;
 31a:	87 b1       	in	r24, 0x07	; 7
 31c:	80 64       	ori	r24, 0x40	; 64
 31e:	87 b9       	out	0x07, r24	; 7
	SET_BIT(ADMUX, 7) ;
 320:	87 b1       	in	r24, 0x07	; 7
 322:	80 68       	ori	r24, 0x80	; 128
 324:	87 b9       	out	0x07, r24	; 7
		#error "Invalid mode of operation"
	#endif

	
	/* !Comment: Bit 5 – ADLAR: ADC Left Adjust Result */
	SET_BIT(ADMUX, 5) ;
 326:	87 b1       	in	r24, 0x07	; 7
 328:	80 62       	ori	r24, 0x20	; 32
 32a:	87 b9       	out	0x07, r24	; 7
	
	/* !Comment: Bits 2:0 – ADPS2:0: ADC Prescaler Select Bits */
	SET_BIT(ADCSRA, 2) ;
 32c:	86 b1       	in	r24, 0x06	; 6
 32e:	84 60       	ori	r24, 0x04	; 4
 330:	86 b9       	out	0x06, r24	; 6
	SET_BIT(ADCSRA, 1) ;
 332:	86 b1       	in	r24, 0x06	; 6
 334:	82 60       	ori	r24, 0x02	; 2
 336:	86 b9       	out	0x06, r24	; 6
	SET_BIT(ADCSRA, 0) ;
 338:	86 b1       	in	r24, 0x06	; 6
 33a:	81 60       	ori	r24, 0x01	; 1
 33c:	86 b9       	out	0x06, r24	; 6
	
	
	/* !Comment: Bit 7 – ADEN: ADC Enable */
	SET_BIT(ADCSRA, 7) ;
 33e:	86 b1       	in	r24, 0x06	; 6
 340:	80 68       	ori	r24, 0x80	; 128
 342:	86 b9       	out	0x06, r24	; 6
 344:	08 95       	ret

00000346 <MCAL_ADC_u8ChannelRead>:
uint8 MCAL_ADC_u8ChannelRead (uint8 u8Channel) 
{
	/* !Comment:  Bit 4:0 - MUX4:0: Analog Channel */
// 	ADMUX &= 0b11100000 ;
// 	ADMUX |= u8Channel ;
	ADMUX = ADMUX & 0b11100000;
 346:	97 b1       	in	r25, 0x07	; 7
 348:	90 7e       	andi	r25, 0xE0	; 224
 34a:	97 b9       	out	0x07, r25	; 7
	ADMUX = ADMUX | u8Channel;	
 34c:	97 b1       	in	r25, 0x07	; 7
 34e:	89 2b       	or	r24, r25
 350:	87 b9       	out	0x07, r24	; 7
	
	/* !Comment:  Bit 6 – ADSC: ADC Start Conversion */
	SET_BIT(ADCSRA, 6) ;
 352:	86 b1       	in	r24, 0x06	; 6
 354:	80 64       	ori	r24, 0x40	; 64
 356:	86 b9       	out	0x06, r24	; 6
	
	/* !Comment:  Bit 4 – ADIF: ADC Interrupt Flag */
	while(GET_BIT(ADCSRA, 4) == 0);
 358:	34 9b       	sbis	0x06, 4	; 6
 35a:	fe cf       	rjmp	.-4      	; 0x358 <MCAL_ADC_u8ChannelRead+0x12>
	
	/* !Comment:  Bit 4 – ADIF is cleared by writing a logical one to the flag */
	SET_BIT(ADCSRA, 4) ;
 35c:	86 b1       	in	r24, 0x06	; 6
 35e:	80 61       	ori	r24, 0x10	; 16
 360:	86 b9       	out	0x06, r24	; 6
	
	/* !Comment: return ADC output */
	return ADCH ;
 362:	85 b1       	in	r24, 0x05	; 5
}
 364:	08 95       	ret

00000366 <MCAL_Timer0_vidInit>:
	TCNT0 = 152 ;
	for (i=0 ; i < 2442; i++)
	{
		while ( ( GET_BIT(TIFR, 0)  ) == 0); // when == 1  == overflow flag without interupt
		SET_BIT(TIFR, 0); // cleared by writing  1
	}
 366:	83 b7       	in	r24, 0x33	; 51
 368:	87 7f       	andi	r24, 0xF7	; 247
 36a:	83 bf       	out	0x33, r24	; 51
 36c:	83 b7       	in	r24, 0x33	; 51
 36e:	8f 7b       	andi	r24, 0xBF	; 191
 370:	83 bf       	out	0x33, r24	; 51
 372:	89 b7       	in	r24, 0x39	; 57
 374:	81 60       	ori	r24, 0x01	; 1
 376:	89 bf       	out	0x39, r24	; 57
 378:	08 95       	ret

0000037a <MCAL_Timer0_vidEnable>:
 37a:	82 bf       	out	0x32, r24	; 50
 37c:	83 b7       	in	r24, 0x33	; 51
 37e:	81 60       	ori	r24, 0x01	; 1
 380:	83 bf       	out	0x33, r24	; 51
 382:	83 b7       	in	r24, 0x33	; 51
 384:	8d 7f       	andi	r24, 0xFD	; 253
 386:	83 bf       	out	0x33, r24	; 51
 388:	83 b7       	in	r24, 0x33	; 51
 38a:	8b 7f       	andi	r24, 0xFB	; 251
 38c:	83 bf       	out	0x33, r24	; 51
 38e:	08 95       	ret

00000390 <MCAL_Timer0_vidDisable>:
 390:	83 b7       	in	r24, 0x33	; 51
 392:	8e 7f       	andi	r24, 0xFE	; 254
 394:	83 bf       	out	0x33, r24	; 51
 396:	83 b7       	in	r24, 0x33	; 51
 398:	8d 7f       	andi	r24, 0xFD	; 253
 39a:	83 bf       	out	0x33, r24	; 51
 39c:	83 b7       	in	r24, 0x33	; 51
 39e:	8b 7f       	andi	r24, 0xFB	; 251
 3a0:	83 bf       	out	0x33, r24	; 51
 3a2:	08 95       	ret

000003a4 <MCAL_TIMER0_vidCallBack>:
}

void (*TIMER0_pvCallBack) (void);
void MCAL_TIMER0_vidCallBack (void (*pvCallBack) (void) ) 
{
	TIMER0_pvCallBack = pvCallBack ;
 3a4:	90 93 7c 00 	sts	0x007C, r25	; 0x80007c <TIMER0_pvCallBack+0x1>
 3a8:	80 93 7b 00 	sts	0x007B, r24	; 0x80007b <TIMER0_pvCallBack>
 3ac:	08 95       	ret

000003ae <__vector_11>:
}

void __vector_11 (void) __attribute__ ((signal)); // interupt for timer0 number 12 -1 (starts from 0) in Datasheet
void __vector_11(void)
{
 3ae:	1f 92       	push	r1
 3b0:	0f 92       	push	r0
 3b2:	0f b6       	in	r0, 0x3f	; 63
 3b4:	0f 92       	push	r0
 3b6:	11 24       	eor	r1, r1
 3b8:	2f 93       	push	r18
 3ba:	3f 93       	push	r19
 3bc:	4f 93       	push	r20
 3be:	5f 93       	push	r21
 3c0:	6f 93       	push	r22
 3c2:	7f 93       	push	r23
 3c4:	8f 93       	push	r24
 3c6:	9f 93       	push	r25
 3c8:	af 93       	push	r26
 3ca:	bf 93       	push	r27
 3cc:	ef 93       	push	r30
 3ce:	ff 93       	push	r31
	TIMER0_pvCallBack();
 3d0:	e0 91 7b 00 	lds	r30, 0x007B	; 0x80007b <TIMER0_pvCallBack>
 3d4:	f0 91 7c 00 	lds	r31, 0x007C	; 0x80007c <TIMER0_pvCallBack+0x1>
 3d8:	09 95       	icall
}
 3da:	ff 91       	pop	r31
 3dc:	ef 91       	pop	r30
 3de:	bf 91       	pop	r27
 3e0:	af 91       	pop	r26
 3e2:	9f 91       	pop	r25
 3e4:	8f 91       	pop	r24
 3e6:	7f 91       	pop	r23
 3e8:	6f 91       	pop	r22
 3ea:	5f 91       	pop	r21
 3ec:	4f 91       	pop	r20
 3ee:	3f 91       	pop	r19
 3f0:	2f 91       	pop	r18
 3f2:	0f 90       	pop	r0
 3f4:	0f be       	out	0x3f, r0	; 63
 3f6:	0f 90       	pop	r0
 3f8:	1f 90       	pop	r1
 3fa:	18 95       	reti

000003fc <MCAL_Timer1_vidInit>:

void MCAL_Timer1_vidInit(void)
{
	// Select Mode = Normal Mode
	CLR_BIT(TCCR1A, 4);
 3fc:	8f b5       	in	r24, 0x2f	; 47
 3fe:	8f 7e       	andi	r24, 0xEF	; 239
 400:	8f bd       	out	0x2f, r24	; 47
	CLR_BIT(TCCR1A, 5);
 402:	8f b5       	in	r24, 0x2f	; 47
 404:	8f 7d       	andi	r24, 0xDF	; 223
 406:	8f bd       	out	0x2f, r24	; 47
	CLR_BIT(TCCR1A, 6);
 408:	8f b5       	in	r24, 0x2f	; 47
 40a:	8f 7b       	andi	r24, 0xBF	; 191
 40c:	8f bd       	out	0x2f, r24	; 47
	CLR_BIT(TCCR1A, 7);
 40e:	8f b5       	in	r24, 0x2f	; 47
 410:	8f 77       	andi	r24, 0x7F	; 127
 412:	8f bd       	out	0x2f, r24	; 47
	
	// Waveform Generation Mode = Normal Mode
	CLR_BIT(TCCR1A, 0);
 414:	8f b5       	in	r24, 0x2f	; 47
 416:	8e 7f       	andi	r24, 0xFE	; 254
 418:	8f bd       	out	0x2f, r24	; 47
	CLR_BIT(TCCR1A, 1);
 41a:	8f b5       	in	r24, 0x2f	; 47
 41c:	8d 7f       	andi	r24, 0xFD	; 253
 41e:	8f bd       	out	0x2f, r24	; 47
	
	CLR_BIT(TCCR1B, 3);
 420:	8e b5       	in	r24, 0x2e	; 46
 422:	87 7f       	andi	r24, 0xF7	; 247
 424:	8e bd       	out	0x2e, r24	; 46
	CLR_BIT(TCCR1B, 4);
 426:	8e b5       	in	r24, 0x2e	; 46
 428:	8f 7e       	andi	r24, 0xEF	; 239
 42a:	8e bd       	out	0x2e, r24	; 46
	
	/* !Comment:  Bit 2 – TOIE1: Timer1/Counter1, Overflow Interrupt Enable */
	SET_BIT (TIMSK, 2);
 42c:	89 b7       	in	r24, 0x39	; 57
 42e:	84 60       	ori	r24, 0x04	; 4
 430:	89 bf       	out	0x39, r24	; 57
 432:	08 95       	ret

00000434 <MCAL_Timer1_vidEnable>:
}

void MCAL_Timer1_vidEnable(uint16 u16Timer1_Counter)
{
	TCNT1 = u16Timer1_Counter; // start register from 152
 434:	9d bd       	out	0x2d, r25	; 45
 436:	8c bd       	out	0x2c, r24	; 44
			TIMER1_DIV_BY_1024
			TIMER1_EXTERNAL_FALIING
			TIMER1_EXTERNAL_RISING
*/
	#if TIMER1_CLOCK_SELECTIONS == TIMER1_NO_PRESCALING
	SET_BIT(TCCR1B, 0u);
 438:	8e b5       	in	r24, 0x2e	; 46
 43a:	81 60       	ori	r24, 0x01	; 1
 43c:	8e bd       	out	0x2e, r24	; 46
	CLR_BIT(TCCR1B, 1u);
 43e:	8e b5       	in	r24, 0x2e	; 46
 440:	8d 7f       	andi	r24, 0xFD	; 253
 442:	8e bd       	out	0x2e, r24	; 46
	CLR_BIT(TCCR1B, 2u);
 444:	8e b5       	in	r24, 0x2e	; 46
 446:	8b 7f       	andi	r24, 0xFB	; 251
 448:	8e bd       	out	0x2e, r24	; 46
 44a:	08 95       	ret

0000044c <MCAL_Timer1_vidDisable>:
	#endif
}

void MCAL_Timer1_vidDisable(void)
{
	CLR_BIT(TCCR1B, 0);
 44c:	8e b5       	in	r24, 0x2e	; 46
 44e:	8e 7f       	andi	r24, 0xFE	; 254
 450:	8e bd       	out	0x2e, r24	; 46
	CLR_BIT(TCCR1B, 1);
 452:	8e b5       	in	r24, 0x2e	; 46
 454:	8d 7f       	andi	r24, 0xFD	; 253
 456:	8e bd       	out	0x2e, r24	; 46
	CLR_BIT(TCCR1B, 2);
 458:	8e b5       	in	r24, 0x2e	; 46
 45a:	8b 7f       	andi	r24, 0xFB	; 251
 45c:	8e bd       	out	0x2e, r24	; 46
 45e:	08 95       	ret

00000460 <MCAL_TIMER1_vidCallBack>:
}

void (*TIMER1_pvCallBack) (void);
void MCAL_TIMER1_vidCallBack (void (*pvCallBack) (void) )
{
	TIMER1_pvCallBack = pvCallBack ;
 460:	90 93 78 00 	sts	0x0078, r25	; 0x800078 <TIMER1_pvCallBack+0x1>
 464:	80 93 77 00 	sts	0x0077, r24	; 0x800077 <TIMER1_pvCallBack>
 468:	08 95       	ret

0000046a <__vector_9>:
}

void __vector_9 (void) __attribute__ ((signal)); // interupt for timer1 number 12 -1 (starts from 0) in Datasheet
void __vector_9(void)
{
 46a:	1f 92       	push	r1
 46c:	0f 92       	push	r0
 46e:	0f b6       	in	r0, 0x3f	; 63
 470:	0f 92       	push	r0
 472:	11 24       	eor	r1, r1
 474:	2f 93       	push	r18
 476:	3f 93       	push	r19
 478:	4f 93       	push	r20
 47a:	5f 93       	push	r21
 47c:	6f 93       	push	r22
 47e:	7f 93       	push	r23
 480:	8f 93       	push	r24
 482:	9f 93       	push	r25
 484:	af 93       	push	r26
 486:	bf 93       	push	r27
 488:	ef 93       	push	r30
 48a:	ff 93       	push	r31
	TIMER1_pvCallBack();
 48c:	e0 91 77 00 	lds	r30, 0x0077	; 0x800077 <TIMER1_pvCallBack>
 490:	f0 91 78 00 	lds	r31, 0x0078	; 0x800078 <TIMER1_pvCallBack+0x1>
 494:	09 95       	icall
}
 496:	ff 91       	pop	r31
 498:	ef 91       	pop	r30
 49a:	bf 91       	pop	r27
 49c:	af 91       	pop	r26
 49e:	9f 91       	pop	r25
 4a0:	8f 91       	pop	r24
 4a2:	7f 91       	pop	r23
 4a4:	6f 91       	pop	r22
 4a6:	5f 91       	pop	r21
 4a8:	4f 91       	pop	r20
 4aa:	3f 91       	pop	r19
 4ac:	2f 91       	pop	r18
 4ae:	0f 90       	pop	r0
 4b0:	0f be       	out	0x3f, r0	; 63
 4b2:	0f 90       	pop	r0
 4b4:	1f 90       	pop	r1
 4b6:	18 95       	reti

000004b8 <MCAL_Timer2_vidInit>:

void MCAL_Timer2_vidInit(void)
{
	// Waveform Generation Mode = Normal Mode
	CLR_BIT(TCCR2, 3);
 4b8:	85 b5       	in	r24, 0x25	; 37
 4ba:	87 7f       	andi	r24, 0xF7	; 247
 4bc:	85 bd       	out	0x25, r24	; 37
	CLR_BIT(TCCR2, 6);
 4be:	85 b5       	in	r24, 0x25	; 37
 4c0:	8f 7b       	andi	r24, 0xBF	; 191
 4c2:	85 bd       	out	0x25, r24	; 37
	
	// Compare Output Mode = Normal Mode
	CLR_BIT(TCCR2, 4);
 4c4:	85 b5       	in	r24, 0x25	; 37
 4c6:	8f 7e       	andi	r24, 0xEF	; 239
 4c8:	85 bd       	out	0x25, r24	; 37
	CLR_BIT(TCCR2, 5);
 4ca:	85 b5       	in	r24, 0x25	; 37
 4cc:	8f 7d       	andi	r24, 0xDF	; 223
 4ce:	85 bd       	out	0x25, r24	; 37
	
	/* !Comment:  Bit 6 – TOIE2: Timer/Counter2 Overflow Interrupt Enable */
	SET_BIT (TIMSK, 6);
 4d0:	89 b7       	in	r24, 0x39	; 57
 4d2:	80 64       	ori	r24, 0x40	; 64
 4d4:	89 bf       	out	0x39, r24	; 57
 4d6:	08 95       	ret

000004d8 <MCAL_Timer2_vidEnable>:
}

void MCAL_Timer2_vidEnable(uint16 u16Timer2_Counter)
{
	TCNT2 = u16Timer2_Counter; // start register from 152
 4d8:	84 bd       	out	0x24, r24	; 36
			TIMER2_DIV_BY_128
			TIMER2_DIV_BY_256
			TIMER2_DIV_BY_1024
*/
	#if TIMER2_CLOCK_SELECTIONS == TIMER2_NO_PRESCALING
	SET_BIT(TCCR2, 0u);
 4da:	85 b5       	in	r24, 0x25	; 37
 4dc:	81 60       	ori	r24, 0x01	; 1
 4de:	85 bd       	out	0x25, r24	; 37
	CLR_BIT(TCCR2, 1u);
 4e0:	85 b5       	in	r24, 0x25	; 37
 4e2:	8d 7f       	andi	r24, 0xFD	; 253
 4e4:	85 bd       	out	0x25, r24	; 37
	CLR_BIT(TCCR2, 2u);
 4e6:	85 b5       	in	r24, 0x25	; 37
 4e8:	8b 7f       	andi	r24, 0xFB	; 251
 4ea:	85 bd       	out	0x25, r24	; 37
 4ec:	08 95       	ret

000004ee <MCAL_Timer2_vidDisable>:
	#endif
}

void MCAL_Timer2_vidDisable(void)
{
	CLR_BIT(TCCR2, 0);
 4ee:	85 b5       	in	r24, 0x25	; 37
 4f0:	8e 7f       	andi	r24, 0xFE	; 254
 4f2:	85 bd       	out	0x25, r24	; 37
	CLR_BIT(TCCR2, 1);
 4f4:	85 b5       	in	r24, 0x25	; 37
 4f6:	8d 7f       	andi	r24, 0xFD	; 253
 4f8:	85 bd       	out	0x25, r24	; 37
	CLR_BIT(TCCR2, 2);
 4fa:	85 b5       	in	r24, 0x25	; 37
 4fc:	8b 7f       	andi	r24, 0xFB	; 251
 4fe:	85 bd       	out	0x25, r24	; 37
 500:	08 95       	ret

00000502 <MCAL_TIMER2_vidCallBack>:
}

void (*TIMER2_pvCallBack) (void);
void MCAL_TIMER2_vidCallBack (void (*pvCallBack) (void) )
{
	TIMER2_pvCallBack = pvCallBack ;
 502:	90 93 7a 00 	sts	0x007A, r25	; 0x80007a <TIMER2_pvCallBack+0x1>
 506:	80 93 79 00 	sts	0x0079, r24	; 0x800079 <TIMER2_pvCallBack>
 50a:	08 95       	ret

0000050c <__vector_5>:
}

void __vector_5 (void) __attribute__ ((signal)); // interupt for timer1 number 12 -1 (starts from 0) in Datasheet
void __vector_5(void)
{
 50c:	1f 92       	push	r1
 50e:	0f 92       	push	r0
 510:	0f b6       	in	r0, 0x3f	; 63
 512:	0f 92       	push	r0
 514:	11 24       	eor	r1, r1
 516:	2f 93       	push	r18
 518:	3f 93       	push	r19
 51a:	4f 93       	push	r20
 51c:	5f 93       	push	r21
 51e:	6f 93       	push	r22
 520:	7f 93       	push	r23
 522:	8f 93       	push	r24
 524:	9f 93       	push	r25
 526:	af 93       	push	r26
 528:	bf 93       	push	r27
 52a:	ef 93       	push	r30
 52c:	ff 93       	push	r31
	TIMER2_pvCallBack();
 52e:	e0 91 79 00 	lds	r30, 0x0079	; 0x800079 <TIMER2_pvCallBack>
 532:	f0 91 7a 00 	lds	r31, 0x007A	; 0x80007a <TIMER2_pvCallBack+0x1>
 536:	09 95       	icall
 538:	ff 91       	pop	r31
 53a:	ef 91       	pop	r30
 53c:	bf 91       	pop	r27
 53e:	af 91       	pop	r26
 540:	9f 91       	pop	r25
 542:	8f 91       	pop	r24
 544:	7f 91       	pop	r23
 546:	6f 91       	pop	r22
 548:	5f 91       	pop	r21
 54a:	4f 91       	pop	r20
 54c:	3f 91       	pop	r19
 54e:	2f 91       	pop	r18
 550:	0f 90       	pop	r0
 552:	0f be       	out	0x3f, r0	; 63
 554:	0f 90       	pop	r0
 556:	1f 90       	pop	r1
 558:	18 95       	reti

0000055a <EEPROM_vidWrite>:
#include "EEPROM_config.h"

void EEPROM_vidWrite (uint16 u16Address, uint8 u8Data)
{
	/* wait until EEWE becomes 0. */
	while (GET_BIT(EECR, 1) !=0 ) ;
 55a:	e1 99       	sbic	0x1c, 1	; 28
 55c:	fe cf       	rjmp	.-4      	; 0x55a <EEPROM_vidWrite>
	
	/* write new EEPRM address to eear (optional) */
	EEAR = u16Address ;
 55e:	9f bb       	out	0x1f, r25	; 31
 560:	8e bb       	out	0x1e, r24	; 30
	
	/* write new EEPRM data to eedr (optional) */
	EEDR = u8Data ;
 562:	6d bb       	out	0x1d, r22	; 29
	
	/* Write a logical one to the EEMWE bit while writing a zero to EEWE in EECR */
	SET_BIT(EECR, 2) ; 
 564:	8c b3       	in	r24, 0x1c	; 28
 566:	84 60       	ori	r24, 0x04	; 4
 568:	8c bb       	out	0x1c, r24	; 28
	// previos instruction will take 4 cycles 
	 /*  Within four clock cycles after setting EEMWE, write a logical one to EEWE. */
	SET_BIT(EECR, 1) ;
 56a:	8c b3       	in	r24, 0x1c	; 28
 56c:	82 60       	ori	r24, 0x02	; 2
 56e:	8c bb       	out	0x1c, r24	; 28
 570:	08 95       	ret

00000572 <EEPROM_vidRead>:
}

uint8 EEPROM_vidRead (uint16 u16Address)
{
	/* wait until EEWE becomes 0. */
	while (GET_BIT(EECR, 1) !=0 ) ;
 572:	e1 99       	sbic	0x1c, 1	; 28
 574:	fe cf       	rjmp	.-4      	; 0x572 <EEPROM_vidRead>
	
	/* write new EEPRM address to eear (optional) */
	EEAR = u16Address ;
 576:	9f bb       	out	0x1f, r25	; 31
 578:	8e bb       	out	0x1e, r24	; 30
	
	/*  Bit 0 – EERE: EEPROM Read Enable */
	SET_BIT(EECR, 0);
 57a:	8c b3       	in	r24, 0x1c	; 28
 57c:	81 60       	ori	r24, 0x01	; 1
 57e:	8c bb       	out	0x1c, r24	; 28
	
	return EEDR ;
 580:	8d b3       	in	r24, 0x1d	; 29
}
 582:	08 95       	ret

00000584 <__vector_14>:
	UART_pvCallBack = pvCallBack ;
}

void __vector_14 (void) __attribute__ ((signal)); // interupt for timer1 number 12 -1 (starts from 0) in Datasheet
void __vector_14(void)
{
 584:	1f 92       	push	r1
 586:	0f 92       	push	r0
 588:	0f b6       	in	r0, 0x3f	; 63
 58a:	0f 92       	push	r0
 58c:	11 24       	eor	r1, r1
 58e:	2f 93       	push	r18
 590:	3f 93       	push	r19
 592:	4f 93       	push	r20
 594:	5f 93       	push	r21
 596:	6f 93       	push	r22
 598:	7f 93       	push	r23
 59a:	8f 93       	push	r24
 59c:	9f 93       	push	r25
 59e:	af 93       	push	r26
 5a0:	bf 93       	push	r27
 5a2:	ef 93       	push	r30
 5a4:	ff 93       	push	r31
	UART_pvCallBack();
 5a6:	e0 91 7d 00 	lds	r30, 0x007D	; 0x80007d <UART_pvCallBack>
 5aa:	f0 91 7e 00 	lds	r31, 0x007E	; 0x80007e <UART_pvCallBack+0x1>
 5ae:	09 95       	icall
 5b0:	ff 91       	pop	r31
 5b2:	ef 91       	pop	r30
 5b4:	bf 91       	pop	r27
 5b6:	af 91       	pop	r26
 5b8:	9f 91       	pop	r25
 5ba:	8f 91       	pop	r24
 5bc:	7f 91       	pop	r23
 5be:	6f 91       	pop	r22
 5c0:	5f 91       	pop	r21
 5c2:	4f 91       	pop	r20
 5c4:	3f 91       	pop	r19
 5c6:	2f 91       	pop	r18
 5c8:	0f 90       	pop	r0
 5ca:	0f be       	out	0x3f, r0	; 63
 5cc:	0f 90       	pop	r0
 5ce:	1f 90       	pop	r1
 5d0:	18 95       	reti

000005d2 <HAL_udtInitCooler>:
{
// 	HAL_udtLedOn(Led0);
	Enable_Motor_1;
	Enable_Motor_2;
	Anti_Clock_Wise_Pin1;
	Anti_Clock_Wise_Pin2;
 5d2:	41 e0       	ldi	r20, 0x01	; 1
 5d4:	64 e0       	ldi	r22, 0x04	; 4
 5d6:	83 e0       	ldi	r24, 0x03	; 3
 5d8:	0e 94 53 00 	call	0xa6	; 0xa6 <DIO_udtSetPinDirection>
 5dc:	41 e0       	ldi	r20, 0x01	; 1
 5de:	65 e0       	ldi	r22, 0x05	; 5
 5e0:	83 e0       	ldi	r24, 0x03	; 3
 5e2:	0e 94 53 00 	call	0xa6	; 0xa6 <DIO_udtSetPinDirection>
 5e6:	41 e0       	ldi	r20, 0x01	; 1
 5e8:	63 e0       	ldi	r22, 0x03	; 3
 5ea:	82 e0       	ldi	r24, 0x02	; 2
 5ec:	0e 94 53 00 	call	0xa6	; 0xa6 <DIO_udtSetPinDirection>
 5f0:	41 e0       	ldi	r20, 0x01	; 1
 5f2:	64 e0       	ldi	r22, 0x04	; 4
 5f4:	82 e0       	ldi	r24, 0x02	; 2
 5f6:	0e 94 53 00 	call	0xa6	; 0xa6 <DIO_udtSetPinDirection>
 5fa:	41 e0       	ldi	r20, 0x01	; 1
 5fc:	65 e0       	ldi	r22, 0x05	; 5
 5fe:	82 e0       	ldi	r24, 0x02	; 2
 600:	0e 94 53 00 	call	0xa6	; 0xa6 <DIO_udtSetPinDirection>
 604:	41 e0       	ldi	r20, 0x01	; 1
 606:	66 e0       	ldi	r22, 0x06	; 6
 608:	82 e0       	ldi	r24, 0x02	; 2
 60a:	0e 94 53 00 	call	0xa6	; 0xa6 <DIO_udtSetPinDirection>
 60e:	08 95       	ret

00000610 <HAL_udtEnableCooler_Clockwise>:
 610:	41 e0       	ldi	r20, 0x01	; 1
 612:	64 e0       	ldi	r22, 0x04	; 4
 614:	83 e0       	ldi	r24, 0x03	; 3
 616:	0e 94 d1 00 	call	0x1a2	; 0x1a2 <DIO_udtSetPinValue>
 61a:	41 e0       	ldi	r20, 0x01	; 1
 61c:	65 e0       	ldi	r22, 0x05	; 5
 61e:	83 e0       	ldi	r24, 0x03	; 3
 620:	0e 94 d1 00 	call	0x1a2	; 0x1a2 <DIO_udtSetPinValue>
 624:	41 e0       	ldi	r20, 0x01	; 1
 626:	63 e0       	ldi	r22, 0x03	; 3
 628:	82 e0       	ldi	r24, 0x02	; 2
 62a:	0e 94 d1 00 	call	0x1a2	; 0x1a2 <DIO_udtSetPinValue>
 62e:	40 e0       	ldi	r20, 0x00	; 0
 630:	64 e0       	ldi	r22, 0x04	; 4
 632:	82 e0       	ldi	r24, 0x02	; 2
 634:	0e 94 d1 00 	call	0x1a2	; 0x1a2 <DIO_udtSetPinValue>
 638:	08 95       	ret

0000063a <HAL_udtDisableCooler>:
}

void HAL_udtDisableCooler(void)
{
// 	HAL_udtLedOff(Led0);
	Disable_Motor_1;
 63a:	40 e0       	ldi	r20, 0x00	; 0
 63c:	64 e0       	ldi	r22, 0x04	; 4
 63e:	83 e0       	ldi	r24, 0x03	; 3
 640:	0e 94 d1 00 	call	0x1a2	; 0x1a2 <DIO_udtSetPinValue>
	Disable_Motor_2;
 644:	40 e0       	ldi	r20, 0x00	; 0
 646:	65 e0       	ldi	r22, 0x05	; 5
 648:	83 e0       	ldi	r24, 0x03	; 3
 64a:	0e 94 d1 00 	call	0x1a2	; 0x1a2 <DIO_udtSetPinValue>
 64e:	08 95       	ret

00000650 <HAL_udtInitHeater>:
#include "Relay_interface.h"
// #include "Leds_interface.h"

void HAL_udtInitHeater (void)
{
	HAL_udtInitRelay();
 650:	0e 94 31 03 	call	0x662	; 0x662 <HAL_udtInitRelay>
 654:	08 95       	ret

00000656 <HAL_udtEnableHeater>:
}

void HAL_udtEnableHeater(void)
{
// 	HAL_udtLedOn(Led2);
	HAL_udtEnableRelay();
 656:	0e 94 3c 03 	call	0x678	; 0x678 <HAL_udtEnableRelay>
 65a:	08 95       	ret

0000065c <HAL_udtDisableHeater>:
}

void HAL_udtDisableHeater(void)
{
// 	HAL_udtLedOff(Led2);
	HAL_udtDisableRelay();
 65c:	0e 94 42 03 	call	0x684	; 0x684 <HAL_udtDisableRelay>
 660:	08 95       	ret

00000662 <HAL_udtInitRelay>:
#include "Relay_private.h"
#include "Relay_config.h"

void HAL_udtInitRelay (void)
{
	Realy_OUTPUT; // relay output
 662:	41 e0       	ldi	r20, 0x01	; 1
 664:	62 e0       	ldi	r22, 0x02	; 2
 666:	80 e0       	ldi	r24, 0x00	; 0
 668:	0e 94 53 00 	call	0xa6	; 0xa6 <DIO_udtSetPinDirection>
	Realy_LOW;		 // relay low
 66c:	40 e0       	ldi	r20, 0x00	; 0
 66e:	62 e0       	ldi	r22, 0x02	; 2
 670:	80 e0       	ldi	r24, 0x00	; 0
 672:	0e 94 d1 00 	call	0x1a2	; 0x1a2 <DIO_udtSetPinValue>
 676:	08 95       	ret

00000678 <HAL_udtEnableRelay>:
}

void HAL_udtEnableRelay(void)
{
	Realy_HIGH;		 // relay high
 678:	41 e0       	ldi	r20, 0x01	; 1
 67a:	62 e0       	ldi	r22, 0x02	; 2
 67c:	80 e0       	ldi	r24, 0x00	; 0
 67e:	0e 94 d1 00 	call	0x1a2	; 0x1a2 <DIO_udtSetPinValue>
 682:	08 95       	ret

00000684 <HAL_udtDisableRelay>:
}

void HAL_udtDisableRelay(void)
{
	Realy_LOW;		 // relay low
 684:	40 e0       	ldi	r20, 0x00	; 0
 686:	62 e0       	ldi	r22, 0x02	; 2
 688:	80 e0       	ldi	r24, 0x00	; 0
 68a:	0e 94 d1 00 	call	0x1a2	; 0x1a2 <DIO_udtSetPinValue>
 68e:	08 95       	ret

00000690 <HAL_udtInitPushButtons>:

uint8 pushButtonValue = 1 ; // var to store PUSH button input value (high by default)

void HAL_udtInitPushButtons(void)
{
	DownButton_Input;			// push button
 690:	40 e0       	ldi	r20, 0x00	; 0
 692:	66 e0       	ldi	r22, 0x06	; 6
 694:	83 e0       	ldi	r24, 0x03	; 3
 696:	0e 94 53 00 	call	0xa6	; 0xa6 <DIO_udtSetPinDirection>
	DownButton_HIGH;			// MAKE PUSH button high  // because avr are all pull up resistor (high by default)
 69a:	41 e0       	ldi	r20, 0x01	; 1
 69c:	66 e0       	ldi	r22, 0x06	; 6
 69e:	83 e0       	ldi	r24, 0x03	; 3
 6a0:	0e 94 d1 00 	call	0x1a2	; 0x1a2 <DIO_udtSetPinValue>

	UpButton_Input;				// Up push button output
 6a4:	40 e0       	ldi	r20, 0x00	; 0
 6a6:	62 e0       	ldi	r22, 0x02	; 2
 6a8:	83 e0       	ldi	r24, 0x03	; 3
 6aa:	0e 94 53 00 	call	0xa6	; 0xa6 <DIO_udtSetPinDirection>
	UpButton_HIGH;				// MAKE PUSH button high  // because avr are all pull up resistor (high by default)
 6ae:	41 e0       	ldi	r20, 0x01	; 1
 6b0:	62 e0       	ldi	r22, 0x02	; 2
 6b2:	83 e0       	ldi	r24, 0x03	; 3
 6b4:	0e 94 d1 00 	call	0x1a2	; 0x1a2 <DIO_udtSetPinValue>
	
	ChangeStateButton_Input;	// ChangeStateButton push button output
 6b8:	40 e0       	ldi	r20, 0x00	; 0
 6ba:	60 e0       	ldi	r22, 0x00	; 0
 6bc:	81 e0       	ldi	r24, 0x01	; 1
 6be:	0e 94 53 00 	call	0xa6	; 0xa6 <DIO_udtSetPinDirection>
	ChangeStateButton_HIGH;		// MAKE PUSH button high  // because avr are all pull up resistor (high by default)
 6c2:	41 e0       	ldi	r20, 0x01	; 1
 6c4:	60 e0       	ldi	r22, 0x00	; 0
 6c6:	81 e0       	ldi	r24, 0x01	; 1
 6c8:	0e 94 d1 00 	call	0x1a2	; 0x1a2 <DIO_udtSetPinValue>
 6cc:	08 95       	ret

000006ce <HAL_udtCheck_DownButton>:

}

Std_ReturnState HAL_udtCheck_DownButton(void)
{
	DownButton_GetValue(&pushButtonValue);			// get pushButtonValue1
 6ce:	40 e6       	ldi	r20, 0x60	; 96
 6d0:	50 e0       	ldi	r21, 0x00	; 0
 6d2:	66 e0       	ldi	r22, 0x06	; 6
 6d4:	83 e0       	ldi	r24, 0x03	; 3
 6d6:	0e 94 4f 01 	call	0x29e	; 0x29e <DIO_udtGetPinValue>
	if(pushButtonValue == DIO_HIGH)		   			// check if button is pushed
 6da:	80 91 60 00 	lds	r24, 0x0060	; 0x800060 <__DATA_REGION_ORIGIN__>
 6de:	81 30       	cpi	r24, 0x01	; 1
 6e0:	41 f0       	breq	.+16     	; 0x6f2 <HAL_udtCheck_DownButton+0x24>
		}
		return true;
	}
	else
	{
		return false;
 6e2:	80 e0       	ldi	r24, 0x00	; 0
 6e4:	08 95       	ret
	DownButton_GetValue(&pushButtonValue);			// get pushButtonValue1
	if(pushButtonValue == DIO_HIGH)		   			// check if button is pushed
	{
		while(pushButtonValue == DIO_HIGH)
		{
			DownButton_GetValue(&pushButtonValue);
 6e6:	40 e6       	ldi	r20, 0x60	; 96
 6e8:	50 e0       	ldi	r21, 0x00	; 0
 6ea:	66 e0       	ldi	r22, 0x06	; 6
 6ec:	83 e0       	ldi	r24, 0x03	; 3
 6ee:	0e 94 4f 01 	call	0x29e	; 0x29e <DIO_udtGetPinValue>
Std_ReturnState HAL_udtCheck_DownButton(void)
{
	DownButton_GetValue(&pushButtonValue);			// get pushButtonValue1
	if(pushButtonValue == DIO_HIGH)		   			// check if button is pushed
	{
		while(pushButtonValue == DIO_HIGH)
 6f2:	80 91 60 00 	lds	r24, 0x0060	; 0x800060 <__DATA_REGION_ORIGIN__>
 6f6:	81 30       	cpi	r24, 0x01	; 1
 6f8:	b1 f3       	breq	.-20     	; 0x6e6 <HAL_udtCheck_DownButton+0x18>
		{
			DownButton_GetValue(&pushButtonValue);
		}
		return true;
 6fa:	81 e0       	ldi	r24, 0x01	; 1
	}
	else
	{
		return false;
	}
}
 6fc:	08 95       	ret

000006fe <HAL_udtCheck_UpButton>:

Std_ReturnState HAL_udtCheck_UpButton(void)
{
		UpButton_GetValue(&pushButtonValue);		// get pushButtonValue1
 6fe:	40 e6       	ldi	r20, 0x60	; 96
 700:	50 e0       	ldi	r21, 0x00	; 0
 702:	62 e0       	ldi	r22, 0x02	; 2
 704:	83 e0       	ldi	r24, 0x03	; 3
 706:	0e 94 4f 01 	call	0x29e	; 0x29e <DIO_udtGetPinValue>
		if(pushButtonValue == DIO_HIGH)				// check if button is pushed
 70a:	80 91 60 00 	lds	r24, 0x0060	; 0x800060 <__DATA_REGION_ORIGIN__>
 70e:	81 30       	cpi	r24, 0x01	; 1
 710:	41 f0       	breq	.+16     	; 0x722 <HAL_udtCheck_UpButton+0x24>
			}
			return true;
		}
		else
		{
			return false;
 712:	80 e0       	ldi	r24, 0x00	; 0
 714:	08 95       	ret
		UpButton_GetValue(&pushButtonValue);		// get pushButtonValue1
		if(pushButtonValue == DIO_HIGH)				// check if button is pushed
		{
			while(pushButtonValue == DIO_HIGH)
			{
				UpButton_GetValue(&pushButtonValue);
 716:	40 e6       	ldi	r20, 0x60	; 96
 718:	50 e0       	ldi	r21, 0x00	; 0
 71a:	62 e0       	ldi	r22, 0x02	; 2
 71c:	83 e0       	ldi	r24, 0x03	; 3
 71e:	0e 94 4f 01 	call	0x29e	; 0x29e <DIO_udtGetPinValue>
Std_ReturnState HAL_udtCheck_UpButton(void)
{
		UpButton_GetValue(&pushButtonValue);		// get pushButtonValue1
		if(pushButtonValue == DIO_HIGH)				// check if button is pushed
		{
			while(pushButtonValue == DIO_HIGH)
 722:	80 91 60 00 	lds	r24, 0x0060	; 0x800060 <__DATA_REGION_ORIGIN__>
 726:	81 30       	cpi	r24, 0x01	; 1
 728:	b1 f3       	breq	.-20     	; 0x716 <HAL_udtCheck_UpButton+0x18>
			{
				UpButton_GetValue(&pushButtonValue);
			}
			return true;
 72a:	81 e0       	ldi	r24, 0x01	; 1
		}
		else
		{
			return false;
		}
}
 72c:	08 95       	ret

0000072e <HAL_udtCheck_ChangeStateButton>:

Std_ReturnState HAL_udtCheck_ChangeStateButton(void)
{
	ChangeStateButton_GetValue(&pushButtonValue);	// get pushButtonValue1
 72e:	40 e6       	ldi	r20, 0x60	; 96
 730:	50 e0       	ldi	r21, 0x00	; 0
 732:	60 e0       	ldi	r22, 0x00	; 0
 734:	81 e0       	ldi	r24, 0x01	; 1
 736:	0e 94 4f 01 	call	0x29e	; 0x29e <DIO_udtGetPinValue>
	if(pushButtonValue == DIO_HIGH)					// check if button is pushed
 73a:	80 91 60 00 	lds	r24, 0x0060	; 0x800060 <__DATA_REGION_ORIGIN__>
 73e:	81 30       	cpi	r24, 0x01	; 1
 740:	41 f0       	breq	.+16     	; 0x752 <HAL_udtCheck_ChangeStateButton+0x24>
		}
		return true;
	}
	else
	{
		return false;
 742:	80 e0       	ldi	r24, 0x00	; 0
 744:	08 95       	ret
	ChangeStateButton_GetValue(&pushButtonValue);	// get pushButtonValue1
	if(pushButtonValue == DIO_HIGH)					// check if button is pushed
	{
		while(pushButtonValue == DIO_HIGH)
		{
			ChangeStateButton_GetValue(&pushButtonValue);
 746:	40 e6       	ldi	r20, 0x60	; 96
 748:	50 e0       	ldi	r21, 0x00	; 0
 74a:	60 e0       	ldi	r22, 0x00	; 0
 74c:	81 e0       	ldi	r24, 0x01	; 1
 74e:	0e 94 4f 01 	call	0x29e	; 0x29e <DIO_udtGetPinValue>
Std_ReturnState HAL_udtCheck_ChangeStateButton(void)
{
	ChangeStateButton_GetValue(&pushButtonValue);	// get pushButtonValue1
	if(pushButtonValue == DIO_HIGH)					// check if button is pushed
	{
		while(pushButtonValue == DIO_HIGH)
 752:	80 91 60 00 	lds	r24, 0x0060	; 0x800060 <__DATA_REGION_ORIGIN__>
 756:	81 30       	cpi	r24, 0x01	; 1
 758:	b1 f3       	breq	.-20     	; 0x746 <HAL_udtCheck_ChangeStateButton+0x18>
		{
			ChangeStateButton_GetValue(&pushButtonValue);
		}
		return true;
 75a:	81 e0       	ldi	r24, 0x01	; 1
	}
	else
	{
		return false;
	}
 75c:	08 95       	ret

0000075e <HAL_udtInitLeds>:
#include "Leds_private.h"
#include "Leds_config.h"

void HAL_udtInitLeds(void)
{
	Led_0_Output;	//led  0	OUTPUT
 75e:	41 e0       	ldi	r20, 0x01	; 1
 760:	62 e0       	ldi	r22, 0x02	; 2
 762:	82 e0       	ldi	r24, 0x02	; 2
 764:	0e 94 53 00 	call	0xa6	; 0xa6 <DIO_udtSetPinDirection>
	Led_1_Output;	//led  1	OUTPUT
 768:	41 e0       	ldi	r20, 0x01	; 1
 76a:	67 e0       	ldi	r22, 0x07	; 7
 76c:	82 e0       	ldi	r24, 0x02	; 2
 76e:	0e 94 53 00 	call	0xa6	; 0xa6 <DIO_udtSetPinDirection>
	Led_2_Output;	//led  2	OUTPUT
 772:	41 e0       	ldi	r20, 0x01	; 1
 774:	63 e0       	ldi	r22, 0x03	; 3
 776:	83 e0       	ldi	r24, 0x03	; 3
 778:	0e 94 53 00 	call	0xa6	; 0xa6 <DIO_udtSetPinDirection>

	Led_0_LOW;		//led 0	LOW
 77c:	40 e0       	ldi	r20, 0x00	; 0
 77e:	62 e0       	ldi	r22, 0x02	; 2
 780:	82 e0       	ldi	r24, 0x02	; 2
 782:	0e 94 d1 00 	call	0x1a2	; 0x1a2 <DIO_udtSetPinValue>
	Led_1_LOW;		//led 1	LOW
 786:	40 e0       	ldi	r20, 0x00	; 0
 788:	67 e0       	ldi	r22, 0x07	; 7
 78a:	82 e0       	ldi	r24, 0x02	; 2
 78c:	0e 94 d1 00 	call	0x1a2	; 0x1a2 <DIO_udtSetPinValue>
	Led_2_LOW;		//led 2	LOW
 790:	40 e0       	ldi	r20, 0x00	; 0
 792:	63 e0       	ldi	r22, 0x03	; 3
 794:	83 e0       	ldi	r24, 0x03	; 3
 796:	0e 94 d1 00 	call	0x1a2	; 0x1a2 <DIO_udtSetPinValue>
 79a:	08 95       	ret

0000079c <HAL_udtLedOn>:
	
}

void HAL_udtLedOn(uint8 u8Led_Num)
{
	switch(u8Led_Num)
 79c:	81 30       	cpi	r24, 0x01	; 1
 79e:	51 f0       	breq	.+20     	; 0x7b4 <HAL_udtLedOn+0x18>
 7a0:	18 f0       	brcs	.+6      	; 0x7a8 <HAL_udtLedOn+0xc>
 7a2:	82 30       	cpi	r24, 0x02	; 2
 7a4:	69 f0       	breq	.+26     	; 0x7c0 <HAL_udtLedOn+0x24>
 7a6:	08 95       	ret
	{
		case Led0: Led_0_HIGH;
 7a8:	41 e0       	ldi	r20, 0x01	; 1
 7aa:	62 e0       	ldi	r22, 0x02	; 2
 7ac:	82 e0       	ldi	r24, 0x02	; 2
 7ae:	0e 94 d1 00 	call	0x1a2	; 0x1a2 <DIO_udtSetPinValue>
		break;	   
 7b2:	08 95       	ret
		case Led1: Led_1_HIGH;
 7b4:	41 e0       	ldi	r20, 0x01	; 1
 7b6:	67 e0       	ldi	r22, 0x07	; 7
 7b8:	82 e0       	ldi	r24, 0x02	; 2
 7ba:	0e 94 d1 00 	call	0x1a2	; 0x1a2 <DIO_udtSetPinValue>
		break;
 7be:	08 95       	ret
		case Led2: Led_2_HIGH;
 7c0:	41 e0       	ldi	r20, 0x01	; 1
 7c2:	63 e0       	ldi	r22, 0x03	; 3
 7c4:	83 e0       	ldi	r24, 0x03	; 3
 7c6:	0e 94 d1 00 	call	0x1a2	; 0x1a2 <DIO_udtSetPinValue>
 7ca:	08 95       	ret

000007cc <HAL_udtLedOff>:
	}
}

void HAL_udtLedOff(uint8 u8Led_Num)
{
	switch(u8Led_Num)
 7cc:	81 30       	cpi	r24, 0x01	; 1
 7ce:	51 f0       	breq	.+20     	; 0x7e4 <HAL_udtLedOff+0x18>
 7d0:	18 f0       	brcs	.+6      	; 0x7d8 <HAL_udtLedOff+0xc>
 7d2:	82 30       	cpi	r24, 0x02	; 2
 7d4:	69 f0       	breq	.+26     	; 0x7f0 <HAL_udtLedOff+0x24>
 7d6:	08 95       	ret
	{
		case Led0: Led_0_LOW;
 7d8:	40 e0       	ldi	r20, 0x00	; 0
 7da:	62 e0       	ldi	r22, 0x02	; 2
 7dc:	82 e0       	ldi	r24, 0x02	; 2
 7de:	0e 94 d1 00 	call	0x1a2	; 0x1a2 <DIO_udtSetPinValue>
		break;
 7e2:	08 95       	ret
		case Led1: Led_1_LOW;
 7e4:	40 e0       	ldi	r20, 0x00	; 0
 7e6:	67 e0       	ldi	r22, 0x07	; 7
 7e8:	82 e0       	ldi	r24, 0x02	; 2
 7ea:	0e 94 d1 00 	call	0x1a2	; 0x1a2 <DIO_udtSetPinValue>
		break;
 7ee:	08 95       	ret
		case Led2: Led_2_LOW;
 7f0:	40 e0       	ldi	r20, 0x00	; 0
 7f2:	63 e0       	ldi	r22, 0x03	; 3
 7f4:	83 e0       	ldi	r24, 0x03	; 3
 7f6:	0e 94 d1 00 	call	0x1a2	; 0x1a2 <DIO_udtSetPinValue>
 7fa:	08 95       	ret

000007fc <HAL_udtDisable7Segment>:
	 En1_HIGH;	// 7-SEGMENT  EN2 HIGH
}

void HAL_udtDisable7Segment(void)
{
	En1_LOW;	// 7-SEGMENT  EN1 LOW
 7fc:	40 e0       	ldi	r20, 0x00	; 0
 7fe:	62 e0       	ldi	r22, 0x02	; 2
 800:	81 e0       	ldi	r24, 0x01	; 1
 802:	0e 94 d1 00 	call	0x1a2	; 0x1a2 <DIO_udtSetPinValue>
	En2_LOW;	// 7-SEGMENT  EN2 LOW
 806:	40 e0       	ldi	r20, 0x00	; 0
 808:	61 e0       	ldi	r22, 0x01	; 1
 80a:	81 e0       	ldi	r24, 0x01	; 1
 80c:	0e 94 d1 00 	call	0x1a2	; 0x1a2 <DIO_udtSetPinValue>
 810:	08 95       	ret

00000812 <HAL_udtInit7Segment>:
}

void HAL_udtInit7Segment (void)
{
	En1_OUTPUT; // 7-SEGMENT  EN1 OUTPUT
 812:	41 e0       	ldi	r20, 0x01	; 1
 814:	62 e0       	ldi	r22, 0x02	; 2
 816:	81 e0       	ldi	r24, 0x01	; 1
 818:	0e 94 53 00 	call	0xa6	; 0xa6 <DIO_udtSetPinDirection>
	En2_OUTPUT; // 7-SEGMENT  EN2 OUTPUT
 81c:	41 e0       	ldi	r20, 0x01	; 1
 81e:	61 e0       	ldi	r22, 0x01	; 1
 820:	81 e0       	ldi	r24, 0x01	; 1
 822:	0e 94 53 00 	call	0xa6	; 0xa6 <DIO_udtSetPinDirection>
	
	A_OUTPUT;	// 7-SEGMENT  A OUTPUT
 826:	41 e0       	ldi	r20, 0x01	; 1
 828:	64 e0       	ldi	r22, 0x04	; 4
 82a:	80 e0       	ldi	r24, 0x00	; 0
 82c:	0e 94 53 00 	call	0xa6	; 0xa6 <DIO_udtSetPinDirection>
	B_OUTPUT;	// 7-SEGMENT  B OUTPUT
 830:	41 e0       	ldi	r20, 0x01	; 1
 832:	65 e0       	ldi	r22, 0x05	; 5
 834:	80 e0       	ldi	r24, 0x00	; 0
 836:	0e 94 53 00 	call	0xa6	; 0xa6 <DIO_udtSetPinDirection>
	C_OUTPUT;	// 7-SEGMENT  C OUTPUT
 83a:	41 e0       	ldi	r20, 0x01	; 1
 83c:	66 e0       	ldi	r22, 0x06	; 6
 83e:	80 e0       	ldi	r24, 0x00	; 0
 840:	0e 94 53 00 	call	0xa6	; 0xa6 <DIO_udtSetPinDirection>
	D_OUTPUT;	// 7-SEGMENT  D OUTPUT
 844:	41 e0       	ldi	r20, 0x01	; 1
 846:	67 e0       	ldi	r22, 0x07	; 7
 848:	80 e0       	ldi	r24, 0x00	; 0
 84a:	0e 94 53 00 	call	0xa6	; 0xa6 <DIO_udtSetPinDirection>
 84e:	08 95       	ret

00000850 <HAL_udtSet7Segment>:


void HAL_udtSet7Segment(uint8 u8_7_SegmentNumber)
{

	switch(u8_7_SegmentNumber)
 850:	90 e0       	ldi	r25, 0x00	; 0
 852:	8a 30       	cpi	r24, 0x0A	; 10
 854:	91 05       	cpc	r25, r1
 856:	08 f0       	brcs	.+2      	; 0x85a <HAL_udtSet7Segment+0xa>
 858:	d6 c0       	rjmp	.+428    	; 0xa06 <__stack+0x1a7>
 85a:	fc 01       	movw	r30, r24
 85c:	e6 5d       	subi	r30, 0xD6	; 214
 85e:	ff 4f       	sbci	r31, 0xFF	; 255
 860:	0c 94 f5 06 	jmp	0xdea	; 0xdea <__tablejump2__>
	{
		case 0: A_LOW; B_LOW; C_LOW; D_LOW;
 864:	40 e0       	ldi	r20, 0x00	; 0
 866:	67 e0       	ldi	r22, 0x07	; 7
 868:	80 e0       	ldi	r24, 0x00	; 0
 86a:	0e 94 d1 00 	call	0x1a2	; 0x1a2 <DIO_udtSetPinValue>
 86e:	40 e0       	ldi	r20, 0x00	; 0
 870:	66 e0       	ldi	r22, 0x06	; 6
 872:	80 e0       	ldi	r24, 0x00	; 0
 874:	0e 94 d1 00 	call	0x1a2	; 0x1a2 <DIO_udtSetPinValue>
 878:	40 e0       	ldi	r20, 0x00	; 0
 87a:	65 e0       	ldi	r22, 0x05	; 5
 87c:	80 e0       	ldi	r24, 0x00	; 0
 87e:	0e 94 d1 00 	call	0x1a2	; 0x1a2 <DIO_udtSetPinValue>
 882:	40 e0       	ldi	r20, 0x00	; 0
 884:	64 e0       	ldi	r22, 0x04	; 4
 886:	80 e0       	ldi	r24, 0x00	; 0
 888:	0e 94 d1 00 	call	0x1a2	; 0x1a2 <DIO_udtSetPinValue>
				break;
 88c:	08 95       	ret
		case 1: A_LOW; B_LOW; C_LOW; D_HIGH;
 88e:	40 e0       	ldi	r20, 0x00	; 0
 890:	67 e0       	ldi	r22, 0x07	; 7
 892:	80 e0       	ldi	r24, 0x00	; 0
 894:	0e 94 d1 00 	call	0x1a2	; 0x1a2 <DIO_udtSetPinValue>
 898:	40 e0       	ldi	r20, 0x00	; 0
 89a:	66 e0       	ldi	r22, 0x06	; 6
 89c:	80 e0       	ldi	r24, 0x00	; 0
 89e:	0e 94 d1 00 	call	0x1a2	; 0x1a2 <DIO_udtSetPinValue>
 8a2:	40 e0       	ldi	r20, 0x00	; 0
 8a4:	65 e0       	ldi	r22, 0x05	; 5
 8a6:	80 e0       	ldi	r24, 0x00	; 0
 8a8:	0e 94 d1 00 	call	0x1a2	; 0x1a2 <DIO_udtSetPinValue>
 8ac:	41 e0       	ldi	r20, 0x01	; 1
 8ae:	64 e0       	ldi	r22, 0x04	; 4
 8b0:	80 e0       	ldi	r24, 0x00	; 0
 8b2:	0e 94 d1 00 	call	0x1a2	; 0x1a2 <DIO_udtSetPinValue>
				break;
 8b6:	08 95       	ret
		case 2: A_LOW; B_LOW; C_HIGH; D_LOW;
 8b8:	40 e0       	ldi	r20, 0x00	; 0
 8ba:	67 e0       	ldi	r22, 0x07	; 7
 8bc:	80 e0       	ldi	r24, 0x00	; 0
 8be:	0e 94 d1 00 	call	0x1a2	; 0x1a2 <DIO_udtSetPinValue>
 8c2:	40 e0       	ldi	r20, 0x00	; 0
 8c4:	66 e0       	ldi	r22, 0x06	; 6
 8c6:	80 e0       	ldi	r24, 0x00	; 0
 8c8:	0e 94 d1 00 	call	0x1a2	; 0x1a2 <DIO_udtSetPinValue>
 8cc:	41 e0       	ldi	r20, 0x01	; 1
 8ce:	65 e0       	ldi	r22, 0x05	; 5
 8d0:	80 e0       	ldi	r24, 0x00	; 0
 8d2:	0e 94 d1 00 	call	0x1a2	; 0x1a2 <DIO_udtSetPinValue>
 8d6:	40 e0       	ldi	r20, 0x00	; 0
 8d8:	64 e0       	ldi	r22, 0x04	; 4
 8da:	80 e0       	ldi	r24, 0x00	; 0
 8dc:	0e 94 d1 00 	call	0x1a2	; 0x1a2 <DIO_udtSetPinValue>
				break;					
 8e0:	08 95       	ret
		case 3: A_LOW; B_LOW; C_HIGH; D_HIGH;
 8e2:	40 e0       	ldi	r20, 0x00	; 0
 8e4:	67 e0       	ldi	r22, 0x07	; 7
 8e6:	80 e0       	ldi	r24, 0x00	; 0
 8e8:	0e 94 d1 00 	call	0x1a2	; 0x1a2 <DIO_udtSetPinValue>
 8ec:	40 e0       	ldi	r20, 0x00	; 0
 8ee:	66 e0       	ldi	r22, 0x06	; 6
 8f0:	80 e0       	ldi	r24, 0x00	; 0
 8f2:	0e 94 d1 00 	call	0x1a2	; 0x1a2 <DIO_udtSetPinValue>
 8f6:	41 e0       	ldi	r20, 0x01	; 1
 8f8:	65 e0       	ldi	r22, 0x05	; 5
 8fa:	80 e0       	ldi	r24, 0x00	; 0
 8fc:	0e 94 d1 00 	call	0x1a2	; 0x1a2 <DIO_udtSetPinValue>
 900:	41 e0       	ldi	r20, 0x01	; 1
 902:	64 e0       	ldi	r22, 0x04	; 4
 904:	80 e0       	ldi	r24, 0x00	; 0
 906:	0e 94 d1 00 	call	0x1a2	; 0x1a2 <DIO_udtSetPinValue>
				break;
 90a:	08 95       	ret
		case 4: A_LOW; B_HIGH; C_LOW; D_LOW;
 90c:	40 e0       	ldi	r20, 0x00	; 0
 90e:	67 e0       	ldi	r22, 0x07	; 7
 910:	80 e0       	ldi	r24, 0x00	; 0
 912:	0e 94 d1 00 	call	0x1a2	; 0x1a2 <DIO_udtSetPinValue>
 916:	41 e0       	ldi	r20, 0x01	; 1
 918:	66 e0       	ldi	r22, 0x06	; 6
 91a:	80 e0       	ldi	r24, 0x00	; 0
 91c:	0e 94 d1 00 	call	0x1a2	; 0x1a2 <DIO_udtSetPinValue>
 920:	40 e0       	ldi	r20, 0x00	; 0
 922:	65 e0       	ldi	r22, 0x05	; 5
 924:	80 e0       	ldi	r24, 0x00	; 0
 926:	0e 94 d1 00 	call	0x1a2	; 0x1a2 <DIO_udtSetPinValue>
 92a:	40 e0       	ldi	r20, 0x00	; 0
 92c:	64 e0       	ldi	r22, 0x04	; 4
 92e:	80 e0       	ldi	r24, 0x00	; 0
 930:	0e 94 d1 00 	call	0x1a2	; 0x1a2 <DIO_udtSetPinValue>
				break;
 934:	08 95       	ret
		case 5: A_LOW; B_HIGH; C_LOW; D_HIGH;
 936:	40 e0       	ldi	r20, 0x00	; 0
 938:	67 e0       	ldi	r22, 0x07	; 7
 93a:	80 e0       	ldi	r24, 0x00	; 0
 93c:	0e 94 d1 00 	call	0x1a2	; 0x1a2 <DIO_udtSetPinValue>
 940:	41 e0       	ldi	r20, 0x01	; 1
 942:	66 e0       	ldi	r22, 0x06	; 6
 944:	80 e0       	ldi	r24, 0x00	; 0
 946:	0e 94 d1 00 	call	0x1a2	; 0x1a2 <DIO_udtSetPinValue>
 94a:	40 e0       	ldi	r20, 0x00	; 0
 94c:	65 e0       	ldi	r22, 0x05	; 5
 94e:	80 e0       	ldi	r24, 0x00	; 0
 950:	0e 94 d1 00 	call	0x1a2	; 0x1a2 <DIO_udtSetPinValue>
 954:	41 e0       	ldi	r20, 0x01	; 1
 956:	64 e0       	ldi	r22, 0x04	; 4
 958:	80 e0       	ldi	r24, 0x00	; 0
 95a:	0e 94 d1 00 	call	0x1a2	; 0x1a2 <DIO_udtSetPinValue>
				break;
 95e:	08 95       	ret
		case 6: A_LOW; B_HIGH; C_HIGH; D_LOW;
 960:	40 e0       	ldi	r20, 0x00	; 0
 962:	67 e0       	ldi	r22, 0x07	; 7
 964:	80 e0       	ldi	r24, 0x00	; 0
 966:	0e 94 d1 00 	call	0x1a2	; 0x1a2 <DIO_udtSetPinValue>
 96a:	41 e0       	ldi	r20, 0x01	; 1
 96c:	66 e0       	ldi	r22, 0x06	; 6
 96e:	80 e0       	ldi	r24, 0x00	; 0
 970:	0e 94 d1 00 	call	0x1a2	; 0x1a2 <DIO_udtSetPinValue>
 974:	41 e0       	ldi	r20, 0x01	; 1
 976:	65 e0       	ldi	r22, 0x05	; 5
 978:	80 e0       	ldi	r24, 0x00	; 0
 97a:	0e 94 d1 00 	call	0x1a2	; 0x1a2 <DIO_udtSetPinValue>
 97e:	40 e0       	ldi	r20, 0x00	; 0
 980:	64 e0       	ldi	r22, 0x04	; 4
 982:	80 e0       	ldi	r24, 0x00	; 0
 984:	0e 94 d1 00 	call	0x1a2	; 0x1a2 <DIO_udtSetPinValue>
				break;
 988:	08 95       	ret
		case 7: A_LOW; B_HIGH; C_HIGH; D_HIGH;
 98a:	40 e0       	ldi	r20, 0x00	; 0
 98c:	67 e0       	ldi	r22, 0x07	; 7
 98e:	80 e0       	ldi	r24, 0x00	; 0
 990:	0e 94 d1 00 	call	0x1a2	; 0x1a2 <DIO_udtSetPinValue>
 994:	41 e0       	ldi	r20, 0x01	; 1
 996:	66 e0       	ldi	r22, 0x06	; 6
 998:	80 e0       	ldi	r24, 0x00	; 0
 99a:	0e 94 d1 00 	call	0x1a2	; 0x1a2 <DIO_udtSetPinValue>
 99e:	41 e0       	ldi	r20, 0x01	; 1
 9a0:	65 e0       	ldi	r22, 0x05	; 5
 9a2:	80 e0       	ldi	r24, 0x00	; 0
 9a4:	0e 94 d1 00 	call	0x1a2	; 0x1a2 <DIO_udtSetPinValue>
 9a8:	41 e0       	ldi	r20, 0x01	; 1
 9aa:	64 e0       	ldi	r22, 0x04	; 4
 9ac:	80 e0       	ldi	r24, 0x00	; 0
 9ae:	0e 94 d1 00 	call	0x1a2	; 0x1a2 <DIO_udtSetPinValue>
				break;
 9b2:	08 95       	ret
		case 8: A_HIGH; B_LOW; C_LOW; D_LOW;
 9b4:	41 e0       	ldi	r20, 0x01	; 1
 9b6:	67 e0       	ldi	r22, 0x07	; 7
 9b8:	80 e0       	ldi	r24, 0x00	; 0
 9ba:	0e 94 d1 00 	call	0x1a2	; 0x1a2 <DIO_udtSetPinValue>
 9be:	40 e0       	ldi	r20, 0x00	; 0
 9c0:	66 e0       	ldi	r22, 0x06	; 6
 9c2:	80 e0       	ldi	r24, 0x00	; 0
 9c4:	0e 94 d1 00 	call	0x1a2	; 0x1a2 <DIO_udtSetPinValue>
 9c8:	40 e0       	ldi	r20, 0x00	; 0
 9ca:	65 e0       	ldi	r22, 0x05	; 5
 9cc:	80 e0       	ldi	r24, 0x00	; 0
 9ce:	0e 94 d1 00 	call	0x1a2	; 0x1a2 <DIO_udtSetPinValue>
 9d2:	40 e0       	ldi	r20, 0x00	; 0
 9d4:	64 e0       	ldi	r22, 0x04	; 4
 9d6:	80 e0       	ldi	r24, 0x00	; 0
 9d8:	0e 94 d1 00 	call	0x1a2	; 0x1a2 <DIO_udtSetPinValue>
				break;
 9dc:	08 95       	ret
		case 9: A_HIGH; B_LOW; C_LOW; D_HIGH;
 9de:	41 e0       	ldi	r20, 0x01	; 1
 9e0:	67 e0       	ldi	r22, 0x07	; 7
 9e2:	80 e0       	ldi	r24, 0x00	; 0
 9e4:	0e 94 d1 00 	call	0x1a2	; 0x1a2 <DIO_udtSetPinValue>
 9e8:	40 e0       	ldi	r20, 0x00	; 0
 9ea:	66 e0       	ldi	r22, 0x06	; 6
 9ec:	80 e0       	ldi	r24, 0x00	; 0
 9ee:	0e 94 d1 00 	call	0x1a2	; 0x1a2 <DIO_udtSetPinValue>
 9f2:	40 e0       	ldi	r20, 0x00	; 0
 9f4:	65 e0       	ldi	r22, 0x05	; 5
 9f6:	80 e0       	ldi	r24, 0x00	; 0
 9f8:	0e 94 d1 00 	call	0x1a2	; 0x1a2 <DIO_udtSetPinValue>
 9fc:	41 e0       	ldi	r20, 0x01	; 1
 9fe:	64 e0       	ldi	r22, 0x04	; 4
 a00:	80 e0       	ldi	r24, 0x00	; 0
 a02:	0e 94 d1 00 	call	0x1a2	; 0x1a2 <DIO_udtSetPinValue>
 a06:	08 95       	ret

00000a08 <HAL_udtWrite_On_2_7Segment>:
		default: break;
	}
}

void HAL_udtWrite_On_2_7Segment (uint8 u8_7_SegmentNumber)
{
 a08:	cf 93       	push	r28
	
	int right_num = u8_7_SegmentNumber % 10;
 a0a:	9d ec       	ldi	r25, 0xCD	; 205
 a0c:	89 9f       	mul	r24, r25
 a0e:	91 2d       	mov	r25, r1
 a10:	11 24       	eor	r1, r1
 a12:	c9 2f       	mov	r28, r25
 a14:	c6 95       	lsr	r28
 a16:	c6 95       	lsr	r28
 a18:	c6 95       	lsr	r28
 a1a:	cc 0f       	add	r28, r28
 a1c:	2c 2f       	mov	r18, r28
 a1e:	22 0f       	add	r18, r18
 a20:	22 0f       	add	r18, r18
 a22:	c2 0f       	add	r28, r18
 a24:	8c 1b       	sub	r24, r28
 a26:	c8 2f       	mov	r28, r24
	int left_num = u8_7_SegmentNumber / 10;
	
	HAL_udtSet7Segment(left_num);
 a28:	89 2f       	mov	r24, r25
 a2a:	86 95       	lsr	r24
 a2c:	86 95       	lsr	r24
 a2e:	86 95       	lsr	r24
 a30:	0e 94 28 04 	call	0x850	; 0x850 <HAL_udtSet7Segment>
	En1_HIGH; // Enable 1st 7-seg
 a34:	41 e0       	ldi	r20, 0x01	; 1
 a36:	62 e0       	ldi	r22, 0x02	; 2
 a38:	81 e0       	ldi	r24, 0x01	; 1
 a3a:	0e 94 d1 00 	call	0x1a2	; 0x1a2 <DIO_udtSetPinValue>
	En2_LOW;
 a3e:	40 e0       	ldi	r20, 0x00	; 0
 a40:	61 e0       	ldi	r22, 0x01	; 1
 a42:	81 e0       	ldi	r24, 0x01	; 1
 a44:	0e 94 d1 00 	call	0x1a2	; 0x1a2 <DIO_udtSetPinValue>
	#else
		//round up by default
		__ticks_dc = (uint32_t)(ceil(fabs(__tmp)));
	#endif

	__builtin_avr_delay_cycles(__ticks_dc);
 a48:	8f e3       	ldi	r24, 0x3F	; 63
 a4a:	9f e1       	ldi	r25, 0x1F	; 31
 a4c:	01 97       	sbiw	r24, 0x01	; 1
 a4e:	f1 f7       	brne	.-4      	; 0xa4c <HAL_udtWrite_On_2_7Segment+0x44>
 a50:	00 c0       	rjmp	.+0      	; 0xa52 <HAL_udtWrite_On_2_7Segment+0x4a>
 a52:	00 00       	nop
	_delay_ms(2);
	
	HAL_udtSet7Segment(right_num);
 a54:	8c 2f       	mov	r24, r28
 a56:	0e 94 28 04 	call	0x850	; 0x850 <HAL_udtSet7Segment>
	En1_LOW; // Enable 1st 7-seg
 a5a:	40 e0       	ldi	r20, 0x00	; 0
 a5c:	62 e0       	ldi	r22, 0x02	; 2
 a5e:	81 e0       	ldi	r24, 0x01	; 1
 a60:	0e 94 d1 00 	call	0x1a2	; 0x1a2 <DIO_udtSetPinValue>
	En2_HIGH;
 a64:	41 e0       	ldi	r20, 0x01	; 1
 a66:	61 e0       	ldi	r22, 0x01	; 1
 a68:	81 e0       	ldi	r24, 0x01	; 1
 a6a:	0e 94 d1 00 	call	0x1a2	; 0x1a2 <DIO_udtSetPinValue>
 a6e:	8f e3       	ldi	r24, 0x3F	; 63
 a70:	9f e1       	ldi	r25, 0x1F	; 31
 a72:	01 97       	sbiw	r24, 0x01	; 1
 a74:	f1 f7       	brne	.-4      	; 0xa72 <HAL_udtWrite_On_2_7Segment+0x6a>
 a76:	00 c0       	rjmp	.+0      	; 0xa78 <HAL_udtWrite_On_2_7Segment+0x70>
 a78:	00 00       	nop
	_delay_ms(2);
	
	HAL_udtDisable7Segment();
 a7a:	0e 94 fe 03 	call	0x7fc	; 0x7fc <HAL_udtDisable7Segment>
 a7e:	cf 91       	pop	r28
 a80:	08 95       	ret

00000a82 <HAL_udtInitTemperature_Sensor>:
#include "Temperature_Sensor_config.h"
#include "ADC_interface.h"
#include <math.h>
void HAL_udtInitTemperature_Sensor (void)
{
	Temperature_Sensor_Intput;
 a82:	40 e0       	ldi	r20, 0x00	; 0
 a84:	61 e0       	ldi	r22, 0x01	; 1
 a86:	80 e0       	ldi	r24, 0x00	; 0
 a88:	0e 94 53 00 	call	0xa6	; 0xa6 <DIO_udtSetPinDirection>
 a8c:	08 95       	ret

00000a8e <HAL_udtGetTemperature>:
}

uint8 HAL_udtGetTemperature(void)
{
	uint16 u16ADCreaaaad = 0;
	u16ADCreaaaad = MCAL_ADC_u8ChannelRead(1);  // portA pin1 (Potentiometer) + NTC Thermistor    //////////////////////////////////
 a8e:	81 e0       	ldi	r24, 0x01	; 1
 a90:	0e 94 a3 01 	call	0x346	; 0x346 <MCAL_ADC_u8ChannelRead>
// 	u16ADCreaaaad = 1 / ((1 / 298.15) + (1 / 3380)*(log ( 256 / u16ADCreaaaad - 1)));
// 	u16ADCreaaaad = u16ADCreaaaad - 273.15;/* convert kelvin to °C */

// 	u16ADCreaaaad = (u16ADCreaaaad * 500UL) / 1024;
// 	return u16ADCreaaaad;
}
 a94:	80 55       	subi	r24, 0x50	; 80
 a96:	08 95       	ret

00000a98 <Interupt_OVF_Timer1_5sec_Set_Temoperature_Mode>:
	}
}

void Interupt_OVF_Timer1_5sec_Set_Temoperature_Mode(void)  // 16-bit timer, prescaler 10244, wanted delay = 5sec, total OVF count = 1193
{
	Timer1_OVF_Counter++;
 a98:	80 91 6e 00 	lds	r24, 0x006E	; 0x80006e <Timer1_OVF_Counter>
 a9c:	90 91 6f 00 	lds	r25, 0x006F	; 0x80006f <Timer1_OVF_Counter+0x1>
 aa0:	a0 91 70 00 	lds	r26, 0x0070	; 0x800070 <Timer1_OVF_Counter+0x2>
 aa4:	b0 91 71 00 	lds	r27, 0x0071	; 0x800071 <Timer1_OVF_Counter+0x3>
 aa8:	01 96       	adiw	r24, 0x01	; 1
 aaa:	a1 1d       	adc	r26, r1
 aac:	b1 1d       	adc	r27, r1
 aae:	80 93 6e 00 	sts	0x006E, r24	; 0x80006e <Timer1_OVF_Counter>
 ab2:	90 93 6f 00 	sts	0x006F, r25	; 0x80006f <Timer1_OVF_Counter+0x1>
 ab6:	a0 93 70 00 	sts	0x0070, r26	; 0x800070 <Timer1_OVF_Counter+0x2>
 aba:	b0 93 71 00 	sts	0x0071, r27	; 0x800071 <Timer1_OVF_Counter+0x3>
	if (Timer1_OVF_Counter >= 1193)
 abe:	89 3a       	cpi	r24, 0xA9	; 169
 ac0:	94 40       	sbci	r25, 0x04	; 4
 ac2:	a1 05       	cpc	r26, r1
 ac4:	b1 05       	cpc	r27, r1
 ac6:	78 f0       	brcs	.+30     	; 0xae6 <Interupt_OVF_Timer1_5sec_Set_Temoperature_Mode+0x4e>
	{
		MCAL_Timer1_vidDisable();
 ac8:	0e 94 26 02 	call	0x44c	; 0x44c <MCAL_Timer1_vidDisable>
		Timer1_OVF_Counter = 0;
 acc:	10 92 6e 00 	sts	0x006E, r1	; 0x80006e <Timer1_OVF_Counter>
 ad0:	10 92 6f 00 	sts	0x006F, r1	; 0x80006f <Timer1_OVF_Counter+0x1>
 ad4:	10 92 70 00 	sts	0x0070, r1	; 0x800070 <Timer1_OVF_Counter+0x2>
 ad8:	10 92 71 00 	sts	0x0071, r1	; 0x800071 <Timer1_OVF_Counter+0x3>
		set_temperature_mode = false;
 adc:	10 92 64 00 	sts	0x0064, r1	; 0x800064 <set_temperature_mode>
		live_temperature_mode = true;
 ae0:	81 e0       	ldi	r24, 0x01	; 1
 ae2:	80 93 63 00 	sts	0x0063, r24	; 0x800063 <live_temperature_mode>
 ae6:	08 95       	ret

00000ae8 <Interupt_OVF_Timer2_1sec_Toggle>:
	}
}

void Interupt_OVF_Timer2_1sec_Toggle(void) // 8-bit timer, prescaler 1024, wanted delay = 1sec, total OVF count = 61036
{
	Timer2_OVF_Counter++;
 ae8:	80 91 6a 00 	lds	r24, 0x006A	; 0x80006a <Timer2_OVF_Counter>
 aec:	90 91 6b 00 	lds	r25, 0x006B	; 0x80006b <Timer2_OVF_Counter+0x1>
 af0:	a0 91 6c 00 	lds	r26, 0x006C	; 0x80006c <Timer2_OVF_Counter+0x2>
 af4:	b0 91 6d 00 	lds	r27, 0x006D	; 0x80006d <Timer2_OVF_Counter+0x3>
 af8:	01 96       	adiw	r24, 0x01	; 1
 afa:	a1 1d       	adc	r26, r1
 afc:	b1 1d       	adc	r27, r1
 afe:	80 93 6a 00 	sts	0x006A, r24	; 0x80006a <Timer2_OVF_Counter>
 b02:	90 93 6b 00 	sts	0x006B, r25	; 0x80006b <Timer2_OVF_Counter+0x1>
 b06:	a0 93 6c 00 	sts	0x006C, r26	; 0x80006c <Timer2_OVF_Counter+0x2>
 b0a:	b0 93 6d 00 	sts	0x006D, r27	; 0x80006d <Timer2_OVF_Counter+0x3>
	if (Timer2_OVF_Counter >= 61036)
 b0e:	8c 36       	cpi	r24, 0x6C	; 108
 b10:	9e 4e       	sbci	r25, 0xEE	; 238
 b12:	a1 05       	cpc	r26, r1
 b14:	b1 05       	cpc	r27, r1
 b16:	88 f0       	brcs	.+34     	; 0xb3a <Interupt_OVF_Timer2_1sec_Toggle+0x52>
	{
		Toggle_Every_1_sec = !Toggle_Every_1_sec;
 b18:	81 e0       	ldi	r24, 0x01	; 1
 b1a:	90 91 62 00 	lds	r25, 0x0062	; 0x800062 <__data_end>
 b1e:	91 11       	cpse	r25, r1
 b20:	80 e0       	ldi	r24, 0x00	; 0
 b22:	80 93 62 00 	sts	0x0062, r24	; 0x800062 <__data_end>
		Timer2_OVF_Counter = 0;
 b26:	10 92 6a 00 	sts	0x006A, r1	; 0x80006a <Timer2_OVF_Counter>
 b2a:	10 92 6b 00 	sts	0x006B, r1	; 0x80006b <Timer2_OVF_Counter+0x1>
 b2e:	10 92 6c 00 	sts	0x006C, r1	; 0x80006c <Timer2_OVF_Counter+0x2>
 b32:	10 92 6d 00 	sts	0x006D, r1	; 0x80006d <Timer2_OVF_Counter+0x3>
		MCAL_Timer2_vidDisable();
 b36:	0e 94 77 02 	call	0x4ee	; 0x4ee <MCAL_Timer2_vidDisable>
 b3a:	08 95       	ret

00000b3c <vidInit_drivers>:
}

void vidInit_drivers (void)
{
	// init hal
	HAL_udtInitCooler();
 b3c:	0e 94 e9 02 	call	0x5d2	; 0x5d2 <HAL_udtInitCooler>
	HAL_udtInitHeater();
 b40:	0e 94 28 03 	call	0x650	; 0x650 <HAL_udtInitHeater>
	HAL_udtInit7Segment();
 b44:	0e 94 09 04 	call	0x812	; 0x812 <HAL_udtInit7Segment>
	HAL_udtInitPushButtons();
 b48:	0e 94 48 03 	call	0x690	; 0x690 <HAL_udtInitPushButtons>
	HAL_udtInitLeds();
 b4c:	0e 94 af 03 	call	0x75e	; 0x75e <HAL_udtInitLeds>
	HAL_udtInitTemperature_Sensor();
 b50:	0e 94 41 05 	call	0xa82	; 0xa82 <HAL_udtInitTemperature_Sensor>
	
	// init mcal
	MCAL_ADC_vidInit();
 b54:	0e 94 8d 01 	call	0x31a	; 0x31a <MCAL_ADC_vidInit>
	MCAL_Timer0_vidInit();
 b58:	0e 94 b3 01 	call	0x366	; 0x366 <MCAL_Timer0_vidInit>
	MCAL_Timer1_vidInit();
 b5c:	0e 94 fe 01 	call	0x3fc	; 0x3fc <MCAL_Timer1_vidInit>
	MCAL_Timer2_vidInit();
 b60:	0e 94 5c 02 	call	0x4b8	; 0x4b8 <MCAL_Timer2_vidInit>
	MCAL_GIE_vidEnable();
 b64:	0e 94 89 01 	call	0x312	; 0x312 <MCAL_GIE_vidEnable>
 b68:	08 95       	ret

00000b6a <main>:
void Interupt_OVF_Timer2_1sec_Toggle(void);


int main (void)
{
	vidInit_drivers();
 b6a:	0e 94 9e 05 	call	0xb3c	; 0xb3c <vidInit_drivers>
	MCAL_TIMER0_vidCallBack (&Interupt_OVF_Timer0_100milisec_Get_Temperature);
 b6e:	82 ed       	ldi	r24, 0xD2	; 210
 b70:	96 e0       	ldi	r25, 0x06	; 6
 b72:	0e 94 d2 01 	call	0x3a4	; 0x3a4 <MCAL_TIMER0_vidCallBack>
	MCAL_TIMER1_vidCallBack (&Interupt_OVF_Timer1_5sec_Set_Temoperature_Mode);
 b76:	8c e4       	ldi	r24, 0x4C	; 76
 b78:	95 e0       	ldi	r25, 0x05	; 5
 b7a:	0e 94 30 02 	call	0x460	; 0x460 <MCAL_TIMER1_vidCallBack>
	MCAL_TIMER2_vidCallBack (&Interupt_OVF_Timer2_1sec_Toggle);
 b7e:	84 e7       	ldi	r24, 0x74	; 116
 b80:	95 e0       	ldi	r25, 0x05	; 5
 b82:	0e 94 81 02 	call	0x502	; 0x502 <MCAL_TIMER2_vidCallBack>
// 	MCAL_UART_Receive_vidCallBack(&Interupt_UART_Received_Order);
	
	Std_ReturnState sleep_mode = true ;

	uint16 u16EEPROM_Set_temp_Address = 4 ;
	uint8 u8EEPROM_Set_temp_Data = EEPROM_vidRead(u16EEPROM_Set_temp_Address);	
 b86:	84 e0       	ldi	r24, 0x04	; 4
 b88:	90 e0       	ldi	r25, 0x00	; 0
 b8a:	0e 94 b9 02 	call	0x572	; 0x572 <EEPROM_vidRead>
	// check EEPROM stored data
	if (u8EEPROM_Set_temp_Data >=35 && u8EEPROM_Set_temp_Data <=75 )
 b8e:	9d ed       	ldi	r25, 0xDD	; 221
 b90:	98 0f       	add	r25, r24
 b92:	99 32       	cpi	r25, 0x29	; 41
 b94:	20 f4       	brcc	.+8      	; 0xb9e <main+0x34>
	{
		Wanted_Temperature = u8EEPROM_Set_temp_Data;
 b96:	80 93 61 00 	sts	0x0061, r24	; 0x800061 <Wanted_Temperature>
void Interupt_OVF_Timer1_5sec_Set_Temoperature_Mode(void);
void Interupt_OVF_Timer2_1sec_Toggle(void);


int main (void)
{
 b9a:	c1 e0       	ldi	r28, 0x01	; 1
 b9c:	07 c0       	rjmp	.+14     	; 0xbac <main+0x42>
	{
		Wanted_Temperature = u8EEPROM_Set_temp_Data;
	}
	else // if not stored store Wanted_Temperature = 60 in EEPROM
	{
		EEPROM_vidWrite(u16EEPROM_Set_temp_Address, Wanted_Temperature);
 b9e:	60 91 61 00 	lds	r22, 0x0061	; 0x800061 <Wanted_Temperature>
 ba2:	84 e0       	ldi	r24, 0x04	; 4
 ba4:	90 e0       	ldi	r25, 0x00	; 0
 ba6:	0e 94 ad 02 	call	0x55a	; 0x55a <EEPROM_vidWrite>
 baa:	f7 cf       	rjmp	.-18     	; 0xb9a <main+0x30>
	uint16 Timer1_Reg_StrtFrom = 59448;	// for remainder ticks 6088 - 2^16 bit timer
	uint16 Timer2_Reg_StrtFrom = 216;	// for remainder ticks 40	- 2^8 bit timer
	
	while(1)
	{
		if (sleep_mode)
 bac:	cc 23       	and	r28, r28
 bae:	09 f1       	breq	.+66     	; 0xbf2 <main+0x88>
		{
 			HAL_udtDisable7Segment(); 
 bb0:	0e 94 fe 03 	call	0x7fc	; 0x7fc <HAL_udtDisable7Segment>
			HAL_udtDisableHeater();
 bb4:	0e 94 2e 03 	call	0x65c	; 0x65c <HAL_udtDisableHeater>
			HAL_udtDisableCooler();
 bb8:	0e 94 1d 03 	call	0x63a	; 0x63a <HAL_udtDisableCooler>
			HAL_udtLedOff(Led1);
 bbc:	81 e0       	ldi	r24, 0x01	; 1
 bbe:	0e 94 e6 03 	call	0x7cc	; 0x7cc <HAL_udtLedOff>
			
			if (HAL_udtCheck_ChangeStateButton())
 bc2:	0e 94 97 03 	call	0x72e	; 0x72e <HAL_udtCheck_ChangeStateButton>
 bc6:	88 23       	and	r24, r24
 bc8:	89 f3       	breq	.-30     	; 0xbac <main+0x42>
			{
				sleep_mode = !sleep_mode;
 bca:	81 e0       	ldi	r24, 0x01	; 1
 bcc:	c1 11       	cpse	r28, r1
 bce:	80 e0       	ldi	r24, 0x00	; 0
 bd0:	c8 2f       	mov	r28, r24
				set_temperature_mode = false;
 bd2:	10 92 64 00 	sts	0x0064, r1	; 0x800064 <set_temperature_mode>
				live_temperature_mode = true;
 bd6:	81 e0       	ldi	r24, 0x01	; 1
 bd8:	80 93 63 00 	sts	0x0063, r24	; 0x800063 <live_temperature_mode>
				HAL_udtEnableHeater();
 bdc:	0e 94 2b 03 	call	0x656	; 0x656 <HAL_udtEnableHeater>
				Current_Temperature_Sensor = HAL_udtGetTemperature();
 be0:	0e 94 47 05 	call	0xa8e	; 0xa8e <HAL_udtGetTemperature>
 be4:	80 93 76 00 	sts	0x0076, r24	; 0x800076 <Current_Temperature_Sensor>
				MCAL_Timer0_vidEnable(Timer0_Reg_StrtFrom); // timer0 to get temperature and average temp every 100ms
 be8:	8c e7       	ldi	r24, 0x7C	; 124
 bea:	90 e0       	ldi	r25, 0x00	; 0
 bec:	0e 94 bd 01 	call	0x37a	; 0x37a <MCAL_Timer0_vidEnable>
 bf0:	dd cf       	rjmp	.-70     	; 0xbac <main+0x42>
			}else{}
		}
		else
		{			
			// check 7_segment mode
			if (live_temperature_mode)
 bf2:	80 91 63 00 	lds	r24, 0x0063	; 0x800063 <live_temperature_mode>
 bf6:	88 23       	and	r24, r24
 bf8:	29 f0       	breq	.+10     	; 0xc04 <main+0x9a>
			{
 				HAL_udtWrite_On_2_7Segment( Current_Temperature_Sensor );
 bfa:	80 91 76 00 	lds	r24, 0x0076	; 0x800076 <Current_Temperature_Sensor>
 bfe:	0e 94 04 05 	call	0xa08	; 0xa08 <HAL_udtWrite_On_2_7Segment>
 c02:	10 c0       	rjmp	.+32     	; 0xc24 <main+0xba>
			}
			else if (set_temperature_mode)
 c04:	80 91 64 00 	lds	r24, 0x0064	; 0x800064 <set_temperature_mode>
 c08:	88 23       	and	r24, r24
 c0a:	61 f0       	breq	.+24     	; 0xc24 <main+0xba>
			{
				/// 7_Segment blink
				MCAL_Timer2_vidEnable(Timer2_Reg_StrtFrom); // timer2 interrupt toggle 7_Segment every 1sec
 c0c:	88 ed       	ldi	r24, 0xD8	; 216
 c0e:	90 e0       	ldi	r25, 0x00	; 0
 c10:	0e 94 6c 02 	call	0x4d8	; 0x4d8 <MCAL_Timer2_vidEnable>
				if (Toggle_Every_1_sec)
 c14:	80 91 62 00 	lds	r24, 0x0062	; 0x800062 <__data_end>
 c18:	88 23       	and	r24, r24
 c1a:	21 f0       	breq	.+8      	; 0xc24 <main+0xba>
				{
					HAL_udtWrite_On_2_7Segment( Wanted_Temperature );
 c1c:	80 91 61 00 	lds	r24, 0x0061	; 0x800061 <Wanted_Temperature>
 c20:	0e 94 04 05 	call	0xa08	; 0xa08 <HAL_udtWrite_On_2_7Segment>
				else{}
			}else{}	
			
			//check up/down push buttons
			//check down button
			if (HAL_udtCheck_DownButton())		
 c24:	0e 94 67 03 	call	0x6ce	; 0x6ce <HAL_udtCheck_DownButton>
 c28:	88 23       	and	r24, r24
 c2a:	e1 f0       	breq	.+56     	; 0xc64 <main+0xfa>
			{
				set_temperature_mode = true;
 c2c:	81 e0       	ldi	r24, 0x01	; 1
 c2e:	80 93 64 00 	sts	0x0064, r24	; 0x800064 <set_temperature_mode>
				live_temperature_mode = false;
 c32:	10 92 63 00 	sts	0x0063, r1	; 0x800063 <live_temperature_mode>
				Timer1_OVF_Counter = 0; // to reset 5sec
 c36:	10 92 6e 00 	sts	0x006E, r1	; 0x80006e <Timer1_OVF_Counter>
 c3a:	10 92 6f 00 	sts	0x006F, r1	; 0x80006f <Timer1_OVF_Counter+0x1>
 c3e:	10 92 70 00 	sts	0x0070, r1	; 0x800070 <Timer1_OVF_Counter+0x2>
 c42:	10 92 71 00 	sts	0x0071, r1	; 0x800071 <Timer1_OVF_Counter+0x3>
				MCAL_Timer1_vidEnable(Timer1_Reg_StrtFrom); // timer1 interrupt to switch to (set temperature mode) 7_Segment for 5sec
 c46:	88 e3       	ldi	r24, 0x38	; 56
 c48:	98 ee       	ldi	r25, 0xE8	; 232
 c4a:	0e 94 1a 02 	call	0x434	; 0x434 <MCAL_Timer1_vidEnable>
				if ( Wanted_Temperature > Minimum_Temperature )	// min 35
 c4e:	60 91 61 00 	lds	r22, 0x0061	; 0x800061 <Wanted_Temperature>
 c52:	64 32       	cpi	r22, 0x24	; 36
 c54:	38 f0       	brcs	.+14     	; 0xc64 <main+0xfa>
				{
					Wanted_Temperature-=5;
 c56:	65 50       	subi	r22, 0x05	; 5
 c58:	60 93 61 00 	sts	0x0061, r22	; 0x800061 <Wanted_Temperature>
					EEPROM_vidWrite(u16EEPROM_Set_temp_Address, Wanted_Temperature); 	// store new Wanted_Temperature value in EEPROM
 c5c:	84 e0       	ldi	r24, 0x04	; 4
 c5e:	90 e0       	ldi	r25, 0x00	; 0
 c60:	0e 94 ad 02 	call	0x55a	; 0x55a <EEPROM_vidWrite>
				}else{}
			}else {}
				
			//check up button
			if (HAL_udtCheck_UpButton())	
 c64:	0e 94 7f 03 	call	0x6fe	; 0x6fe <HAL_udtCheck_UpButton>
 c68:	88 23       	and	r24, r24
 c6a:	e1 f0       	breq	.+56     	; 0xca4 <main+0x13a>
			{
				set_temperature_mode = true;
 c6c:	81 e0       	ldi	r24, 0x01	; 1
 c6e:	80 93 64 00 	sts	0x0064, r24	; 0x800064 <set_temperature_mode>
				live_temperature_mode = false;
 c72:	10 92 63 00 	sts	0x0063, r1	; 0x800063 <live_temperature_mode>
				Timer1_OVF_Counter = 0;  // to reset 5sec
 c76:	10 92 6e 00 	sts	0x006E, r1	; 0x80006e <Timer1_OVF_Counter>
 c7a:	10 92 6f 00 	sts	0x006F, r1	; 0x80006f <Timer1_OVF_Counter+0x1>
 c7e:	10 92 70 00 	sts	0x0070, r1	; 0x800070 <Timer1_OVF_Counter+0x2>
 c82:	10 92 71 00 	sts	0x0071, r1	; 0x800071 <Timer1_OVF_Counter+0x3>
				MCAL_Timer1_vidEnable(Timer1_Reg_StrtFrom); // timer1 interrupt to switch to (set temperature mode) 7_Segment for 5sec
 c86:	88 e3       	ldi	r24, 0x38	; 56
 c88:	98 ee       	ldi	r25, 0xE8	; 232
 c8a:	0e 94 1a 02 	call	0x434	; 0x434 <MCAL_Timer1_vidEnable>
				if ( Wanted_Temperature < Maximum_Temperature )	// max 75
 c8e:	60 91 61 00 	lds	r22, 0x0061	; 0x800061 <Wanted_Temperature>
 c92:	6b 34       	cpi	r22, 0x4B	; 75
 c94:	38 f4       	brcc	.+14     	; 0xca4 <main+0x13a>
				{
					Wanted_Temperature+=5;
 c96:	6b 5f       	subi	r22, 0xFB	; 251
 c98:	60 93 61 00 	sts	0x0061, r22	; 0x800061 <Wanted_Temperature>
					EEPROM_vidWrite(u16EEPROM_Set_temp_Address, Wanted_Temperature);  // store new Wanted_Temperature value in EEPROM
 c9c:	84 e0       	ldi	r24, 0x04	; 4
 c9e:	90 e0       	ldi	r25, 0x00	; 0
 ca0:	0e 94 ad 02 	call	0x55a	; 0x55a <EEPROM_vidWrite>
				}else{}
			}else {}
			
			// check on/off push button
			if (HAL_udtCheck_ChangeStateButton())
 ca4:	0e 94 97 03 	call	0x72e	; 0x72e <HAL_udtCheck_ChangeStateButton>
 ca8:	88 23       	and	r24, r24
 caa:	51 f0       	breq	.+20     	; 0xcc0 <main+0x156>
			{
				sleep_mode = !sleep_mode;
 cac:	81 e0       	ldi	r24, 0x01	; 1
 cae:	c1 11       	cpse	r28, r1
 cb0:	80 e0       	ldi	r24, 0x00	; 0
 cb2:	c8 2f       	mov	r28, r24
				MCAL_Timer0_vidDisable();
 cb4:	0e 94 c8 01 	call	0x390	; 0x390 <MCAL_Timer0_vidDisable>
				MCAL_Timer1_vidDisable();
 cb8:	0e 94 26 02 	call	0x44c	; 0x44c <MCAL_Timer1_vidDisable>
				MCAL_Timer2_vidDisable();
 cbc:	0e 94 77 02 	call	0x4ee	; 0x4ee <MCAL_Timer2_vidDisable>
			}else{}
			
			// check temperature
			if ( u16Teperature_Average < Wanted_Temperature-5 ) // Enable Heater
 cc0:	80 91 61 00 	lds	r24, 0x0061	; 0x800061 <Wanted_Temperature>
 cc4:	90 e0       	ldi	r25, 0x00	; 0
 cc6:	05 97       	sbiw	r24, 0x05	; 5
 cc8:	20 91 65 00 	lds	r18, 0x0065	; 0x800065 <u16Teperature_Average>
 ccc:	30 91 66 00 	lds	r19, 0x0066	; 0x800066 <u16Teperature_Average+0x1>
 cd0:	28 17       	cp	r18, r24
 cd2:	39 07       	cpc	r19, r25
 cd4:	98 f4       	brcc	.+38     	; 0xcfc <main+0x192>
			{
				/// led1 blink
				MCAL_Timer2_vidEnable(Timer2_Reg_StrtFrom); // // timer2 interrupt toggle led and 7_Segment every 1sec
 cd6:	88 ed       	ldi	r24, 0xD8	; 216
 cd8:	90 e0       	ldi	r25, 0x00	; 0
 cda:	0e 94 6c 02 	call	0x4d8	; 0x4d8 <MCAL_Timer2_vidEnable>
				if (Toggle_Every_1_sec)
 cde:	80 91 62 00 	lds	r24, 0x0062	; 0x800062 <__data_end>
 ce2:	88 23       	and	r24, r24
 ce4:	21 f0       	breq	.+8      	; 0xcee <main+0x184>
				{
					HAL_udtLedOn(Led1);
 ce6:	81 e0       	ldi	r24, 0x01	; 1
 ce8:	0e 94 ce 03 	call	0x79c	; 0x79c <HAL_udtLedOn>
 cec:	03 c0       	rjmp	.+6      	; 0xcf4 <main+0x18a>
				}
				else
				{
					HAL_udtLedOff(Led1);
 cee:	81 e0       	ldi	r24, 0x01	; 1
 cf0:	0e 94 e6 03 	call	0x7cc	; 0x7cc <HAL_udtLedOff>
				}
				HAL_udtEnableHeater();
 cf4:	0e 94 2b 03 	call	0x656	; 0x656 <HAL_udtEnableHeater>
				HAL_udtDisableCooler();
 cf8:	0e 94 1d 03 	call	0x63a	; 0x63a <HAL_udtDisableCooler>
			}else {}
				
			if ( u16Teperature_Average > Wanted_Temperature+5 ) // Enable Cooler
 cfc:	80 91 61 00 	lds	r24, 0x0061	; 0x800061 <Wanted_Temperature>
 d00:	90 e0       	ldi	r25, 0x00	; 0
 d02:	05 96       	adiw	r24, 0x05	; 5
 d04:	20 91 65 00 	lds	r18, 0x0065	; 0x800065 <u16Teperature_Average>
 d08:	30 91 66 00 	lds	r19, 0x0066	; 0x800066 <u16Teperature_Average+0x1>
 d0c:	82 17       	cp	r24, r18
 d0e:	93 07       	cpc	r25, r19
 d10:	08 f0       	brcs	.+2      	; 0xd14 <main+0x1aa>
 d12:	4c cf       	rjmp	.-360    	; 0xbac <main+0x42>
			{
				MCAL_Timer2_vidDisable();
 d14:	0e 94 77 02 	call	0x4ee	; 0x4ee <MCAL_Timer2_vidDisable>
				HAL_udtLedOn(Led1);
 d18:	81 e0       	ldi	r24, 0x01	; 1
 d1a:	0e 94 ce 03 	call	0x79c	; 0x79c <HAL_udtLedOn>
				HAL_udtEnableCooler_Clockwise();
 d1e:	0e 94 08 03 	call	0x610	; 0x610 <HAL_udtEnableCooler_Clockwise>
				HAL_udtDisableHeater();
 d22:	0e 94 2e 03 	call	0x65c	; 0x65c <HAL_udtDisableHeater>
 d26:	42 cf       	rjmp	.-380    	; 0xbac <main+0x42>

00000d28 <vidGet_Temperature_And_Average_Of_Last_10_Temperature_Readings>:

//get Average Of Last 10 Temperature Readings
void vidGet_Temperature_And_Average_Of_Last_10_Temperature_Readings(void)
{
	uint8 u8Counter = 0;
	Current_Temperature_Sensor = HAL_udtGetTemperature();
 d28:	0e 94 47 05 	call	0xa8e	; 0xa8e <HAL_udtGetTemperature>
 d2c:	80 93 76 00 	sts	0x0076, r24	; 0x800076 <Current_Temperature_Sensor>
	//stores the last ten values of lm35 readings instead of EEprom
	u8Temprature_Array[u8Temprature_Array_Counter] = Current_Temperature_Sensor;
 d30:	90 91 69 00 	lds	r25, 0x0069	; 0x800069 <u8Temprature_Array_Counter>
 d34:	e9 2f       	mov	r30, r25
 d36:	f0 e0       	ldi	r31, 0x00	; 0
 d38:	e1 58       	subi	r30, 0x81	; 129
 d3a:	ff 4f       	sbci	r31, 0xFF	; 255
 d3c:	80 83       	st	Z, r24
	u8Temprature_Array_Counter++;
 d3e:	81 e0       	ldi	r24, 0x01	; 1
 d40:	89 0f       	add	r24, r25
 d42:	80 93 69 00 	sts	0x0069, r24	; 0x800069 <u8Temprature_Array_Counter>
	
	if (u8Temprature_Array_Counter == 10)
 d46:	8a 30       	cpi	r24, 0x0A	; 10
 d48:	61 f5       	brne	.+88     	; 0xda2 <vidGet_Temperature_And_Average_Of_Last_10_Temperature_Readings+0x7a>
	{
		u8Temprature_Array_Counter = 0;
 d4a:	10 92 69 00 	sts	0x0069, r1	; 0x800069 <u8Temprature_Array_Counter>
		for (u8Counter = 0; u8Counter < 10; u8Counter++)
 d4e:	80 e0       	ldi	r24, 0x00	; 0
 d50:	10 c0       	rjmp	.+32     	; 0xd72 <vidGet_Temperature_And_Average_Of_Last_10_Temperature_Readings+0x4a>
		{
			u16Teperature_Sum += u8Temprature_Array[u8Counter];
 d52:	e8 2f       	mov	r30, r24
 d54:	f0 e0       	ldi	r31, 0x00	; 0
 d56:	e1 58       	subi	r30, 0x81	; 129
 d58:	ff 4f       	sbci	r31, 0xFF	; 255
 d5a:	90 81       	ld	r25, Z
 d5c:	20 91 67 00 	lds	r18, 0x0067	; 0x800067 <u16Teperature_Sum>
 d60:	30 91 68 00 	lds	r19, 0x0068	; 0x800068 <u16Teperature_Sum+0x1>
 d64:	29 0f       	add	r18, r25
 d66:	31 1d       	adc	r19, r1
 d68:	30 93 68 00 	sts	0x0068, r19	; 0x800068 <u16Teperature_Sum+0x1>
 d6c:	20 93 67 00 	sts	0x0067, r18	; 0x800067 <u16Teperature_Sum>
	u8Temprature_Array_Counter++;
	
	if (u8Temprature_Array_Counter == 10)
	{
		u8Temprature_Array_Counter = 0;
		for (u8Counter = 0; u8Counter < 10; u8Counter++)
 d70:	8f 5f       	subi	r24, 0xFF	; 255
 d72:	8a 30       	cpi	r24, 0x0A	; 10
 d74:	70 f3       	brcs	.-36     	; 0xd52 <vidGet_Temperature_And_Average_Of_Last_10_Temperature_Readings+0x2a>
		{
			u16Teperature_Sum += u8Temprature_Array[u8Counter];
		}
		u16Teperature_Average = u16Teperature_Sum / 10;
 d76:	20 91 67 00 	lds	r18, 0x0067	; 0x800067 <u16Teperature_Sum>
 d7a:	30 91 68 00 	lds	r19, 0x0068	; 0x800068 <u16Teperature_Sum+0x1>
 d7e:	ad ec       	ldi	r26, 0xCD	; 205
 d80:	bc ec       	ldi	r27, 0xCC	; 204
 d82:	0e 94 fb 06 	call	0xdf6	; 0xdf6 <__umulhisi3>
 d86:	96 95       	lsr	r25
 d88:	87 95       	ror	r24
 d8a:	96 95       	lsr	r25
 d8c:	87 95       	ror	r24
 d8e:	96 95       	lsr	r25
 d90:	87 95       	ror	r24
 d92:	90 93 66 00 	sts	0x0066, r25	; 0x800066 <u16Teperature_Average+0x1>
 d96:	80 93 65 00 	sts	0x0065, r24	; 0x800065 <u16Teperature_Average>
		u16Teperature_Sum = 0;
 d9a:	10 92 68 00 	sts	0x0068, r1	; 0x800068 <u16Teperature_Sum+0x1>
 d9e:	10 92 67 00 	sts	0x0067, r1	; 0x800067 <u16Teperature_Sum>
 da2:	08 95       	ret

00000da4 <Interupt_OVF_Timer0_100milisec_Get_Temperature>:
	}
}

void Interupt_OVF_Timer0_100milisec_Get_Temperature(void) // 8-bit timer, prescaler 10244, wanted delay = 100msec, total OVF count = 6104
{
	Timer0_OVF_Counter++; 
 da4:	80 91 72 00 	lds	r24, 0x0072	; 0x800072 <Timer0_OVF_Counter>
 da8:	90 91 73 00 	lds	r25, 0x0073	; 0x800073 <Timer0_OVF_Counter+0x1>
 dac:	a0 91 74 00 	lds	r26, 0x0074	; 0x800074 <Timer0_OVF_Counter+0x2>
 db0:	b0 91 75 00 	lds	r27, 0x0075	; 0x800075 <Timer0_OVF_Counter+0x3>
 db4:	01 96       	adiw	r24, 0x01	; 1
 db6:	a1 1d       	adc	r26, r1
 db8:	b1 1d       	adc	r27, r1
 dba:	80 93 72 00 	sts	0x0072, r24	; 0x800072 <Timer0_OVF_Counter>
 dbe:	90 93 73 00 	sts	0x0073, r25	; 0x800073 <Timer0_OVF_Counter+0x1>
 dc2:	a0 93 74 00 	sts	0x0074, r26	; 0x800074 <Timer0_OVF_Counter+0x2>
 dc6:	b0 93 75 00 	sts	0x0075, r27	; 0x800075 <Timer0_OVF_Counter+0x3>
	if (Timer0_OVF_Counter >= 6104)
 dca:	88 3d       	cpi	r24, 0xD8	; 216
 dcc:	97 41       	sbci	r25, 0x17	; 23
 dce:	a1 05       	cpc	r26, r1
 dd0:	b1 05       	cpc	r27, r1
 dd2:	50 f0       	brcs	.+20     	; 0xde8 <Interupt_OVF_Timer0_100milisec_Get_Temperature+0x44>
	{
		vidGet_Temperature_And_Average_Of_Last_10_Temperature_Readings();
 dd4:	0e 94 94 06 	call	0xd28	; 0xd28 <vidGet_Temperature_And_Average_Of_Last_10_Temperature_Readings>
// 		MCAL_Timer0_vidDisable();
		Timer0_OVF_Counter = 0;
 dd8:	10 92 72 00 	sts	0x0072, r1	; 0x800072 <Timer0_OVF_Counter>
 ddc:	10 92 73 00 	sts	0x0073, r1	; 0x800073 <Timer0_OVF_Counter+0x1>
 de0:	10 92 74 00 	sts	0x0074, r1	; 0x800074 <Timer0_OVF_Counter+0x2>
 de4:	10 92 75 00 	sts	0x0075, r1	; 0x800075 <Timer0_OVF_Counter+0x3>
 de8:	08 95       	ret

00000dea <__tablejump2__>:
 dea:	ee 0f       	add	r30, r30
 dec:	ff 1f       	adc	r31, r31
 dee:	05 90       	lpm	r0, Z+
 df0:	f4 91       	lpm	r31, Z
 df2:	e0 2d       	mov	r30, r0
 df4:	09 94       	ijmp

00000df6 <__umulhisi3>:
 df6:	a2 9f       	mul	r26, r18
 df8:	b0 01       	movw	r22, r0
 dfa:	b3 9f       	mul	r27, r19
 dfc:	c0 01       	movw	r24, r0
 dfe:	a3 9f       	mul	r26, r19
 e00:	70 0d       	add	r23, r0
 e02:	81 1d       	adc	r24, r1
 e04:	11 24       	eor	r1, r1
 e06:	91 1d       	adc	r25, r1
 e08:	b2 9f       	mul	r27, r18
 e0a:	70 0d       	add	r23, r0
 e0c:	81 1d       	adc	r24, r1
 e0e:	11 24       	eor	r1, r1
 e10:	91 1d       	adc	r25, r1
 e12:	08 95       	ret

00000e14 <_exit>:
 e14:	f8 94       	cli

00000e16 <__stop_program>:
 e16:	ff cf       	rjmp	.-2      	; 0xe16 <__stop_program>
